source_filename = "test"
target datalayout = "e-p:32:32:32-f80:32:32"

@global_var_ec4 = local_unnamed_addr constant i32 82440
@global_var_150a4 = global i32 0
@global_var_ec8 = local_unnamed_addr constant i32 82404
@global_var_15094 = local_unnamed_addr global i32 0
@global_var_ecc = local_unnamed_addr constant i32 82404
@global_var_1509c = external local_unnamed_addr global i32
@global_var_f20 = local_unnamed_addr constant i32 82144
@global_var_14ef8 = global i32 1
@global_var_15000 = local_unnamed_addr global i32* @global_var_14ef8
@global_var_f24 = local_unnamed_addr constant i32 128
@global_var_15080 = local_unnamed_addr global i32 8116
@global_var_1fb4 = constant i32 -382908416
@global_var_f44 = local_unnamed_addr constant i32 82120
@global_var_f48 = local_unnamed_addr constant i32 136
@global_var_15088 = local_unnamed_addr global i32 0
@global_var_f80 = local_unnamed_addr constant i32 82244
@global_var_f84 = local_unnamed_addr constant i32 82240
@global_var_f88 = local_unnamed_addr constant i32 82068
@global_var_f8c = local_unnamed_addr constant i32 132
@global_var_15084 = local_unnamed_addr global i32 0
@global_var_fd0 = local_unnamed_addr constant i32 82176
@global_var_fd4 = local_unnamed_addr constant i32 82172
@global_var_fd8 = local_unnamed_addr constant i32 81988
@global_var_fdc = local_unnamed_addr constant i32 140
@global_var_1508c = local_unnamed_addr global i32 0
@global_var_1034 = local_unnamed_addr constant i32 82096
@global_var_1038 = local_unnamed_addr constant i32 81928
@global_var_103c = local_unnamed_addr constant i32 144
@global_var_15090 = local_unnamed_addr global i32 0
@global_var_1040 = local_unnamed_addr constant i32 82048
@global_var_1044 = local_unnamed_addr constant i32 82032
@global_var_10c4 = local_unnamed_addr constant i32 12728
@global_var_421c = constant [5 x i8] c"Test\00"
@global_var_3e8 = global [3 x i32] %wide-string
@global_var_1330 = local_unnamed_addr constant i32 -443744248
@global_var_1438 = local_unnamed_addr constant i32 -443744248
@global_var_16ac = local_unnamed_addr constant i32 1374389535
@global_var_16b0 = local_unnamed_addr constant i32 1074339512
@global_var_18ec = local_unnamed_addr constant i32 80064
@global_var_1507c = local_unnamed_addr global i32 0
@global_var_18f0 = local_unnamed_addr constant i32 78772
@global_var_14c14 = local_unnamed_addr global i32 8
@global_var_1f4 = global i32 0
@global_var_1e5c = local_unnamed_addr constant i32 77768
@global_var_14c28 = global i32 8
@global_var_1e60 = local_unnamed_addr constant i32 77704
@global_var_14c34 = global i32 8
@global_var_1e64 = local_unnamed_addr constant i32 77620
@global_var_14c20 = global i32 8
@global_var_1e68 = local_unnamed_addr constant i32 77620
@global_var_1e6c = local_unnamed_addr constant i32 77500
@global_var_1e70 = local_unnamed_addr constant i32 77512
@global_var_1f80 = local_unnamed_addr constant i32 9113
@global_var_4221 = constant i32 540884285
@global_var_1f84 = local_unnamed_addr constant i32 9130
@global_var_4246 = constant i32 760238147
@global_var_1f88 = local_unnamed_addr constant i32 9140
@global_var_4264 = constant i32 760238147
@global_var_1f8c = local_unnamed_addr constant i32 9148
@global_var_4280 = constant i32 760238147
@global_var_1f90 = local_unnamed_addr constant i32 9156
@global_var_429c = constant i32 760238147
@global_var_1f94 = local_unnamed_addr constant i32 9164
@global_var_42b8 = constant i32 760238147
@global_var_1f98 = local_unnamed_addr constant i32 9173
@global_var_42d5 = constant i32 760238147
@global_var_1f9c = local_unnamed_addr constant i32 9181
@global_var_42f1 = constant i32 760238147
@global_var_1fa0 = local_unnamed_addr constant i32 9189
@global_var_430d = constant i32 760238147
@global_var_1fa4 = local_unnamed_addr constant i32 9197
@global_var_4329 = constant i32 760238147
@global_var_1fa8 = local_unnamed_addr constant i32 9205
@global_var_4345 = constant i32 760238147
@global_var_1fac = local_unnamed_addr constant i32 9214
@global_var_4362 = constant i32 760238147
@global_var_1fb0 = local_unnamed_addr constant i32 9223
@global_var_437f = constant i32 760238147
@global_var_234 = global i32 0
@global_var_2594 = local_unnamed_addr constant i32 76592
@global_var_150a8 = local_unnamed_addr global i32 0
@global_var_2598 = local_unnamed_addr constant i32 76584
@global_var_2600 = local_unnamed_addr constant i32 76456
@global_var_2664 = local_unnamed_addr constant i32 76384
@global_var_2668 = local_unnamed_addr constant i32 76376
@global_var_2690 = local_unnamed_addr constant i32 75196
@global_var_14c40 = local_unnamed_addr global i32 0
@global_var_14c48 = global i32 9952
@global_var_26dc = local_unnamed_addr constant i32 75164
@global_var_14c60 = local_unnamed_addr global i32 0
@global_var_14c68 = global i32 9980
@global_var_27b0 = local_unnamed_addr constant i32 74988
@global_var_14c84 = local_unnamed_addr global i32 0
@global_var_14c8c = global i32 12612
@global_var_14ca4 = global i32 12700
@global_var_2868 = local_unnamed_addr constant i32 75064
@global_var_14d54 = external global i32
@global_var_14d14 = global i32 13608
@global_var_14d7c = local_unnamed_addr global i32 13096
@global_var_14d98 = local_unnamed_addr global i32 13252
@global_var_14dd0 = local_unnamed_addr global i32 13352
@global_var_14dec = local_unnamed_addr global i32 13508
@global_var_14d48 = global i32 13772
@global_var_14d2c = global i32 13696
@global_var_286c = local_unnamed_addr constant i32 74944
@global_var_14d08 = local_unnamed_addr global i32 16
@global_var_28b0 = local_unnamed_addr constant i32 74944
@global_var_2efc = local_unnamed_addr constant i32 73680
@global_var_14ebc = local_unnamed_addr global i32 0
@global_var_14ec4 = global i32 14608
@global_var_2f3c = local_unnamed_addr constant i32 73656
@global_var_14ee4 = local_unnamed_addr global i32 0
@global_var_14eec = global i32 14808
@global_var_3074 = local_unnamed_addr constant i32 4909
@global_var_439d = constant [5 x i8] c"Base\00"
@global_var_30c0 = local_unnamed_addr constant i32 4838
@global_var_43a2 = constant [8 x i8] c"Derived\00"
@global_var_3118 = local_unnamed_addr constant i32 72660
@global_var_14ce0 = local_unnamed_addr global i32 0
@global_var_14ce8 = global i32 12776
@global_var_3140 = local_unnamed_addr constant i32 72640
@global_var_14cf4 = local_unnamed_addr global i32 0
@global_var_14cfc = global i32 12864
@global_var_32bc = local_unnamed_addr constant i32 72576
@global_var_14e30 = local_unnamed_addr global i32 0
@global_var_14e38 = global i32 13872
@global_var_3390 = local_unnamed_addr constant i32 72452
@global_var_14e50 = local_unnamed_addr global i32 13096
@global_var_14e6c = local_unnamed_addr global i32 13252
@global_var_3490 = local_unnamed_addr constant i32 72256
@global_var_14e8c = local_unnamed_addr global i32 13352
@global_var_14ea8 = local_unnamed_addr global i32 13508
@global_var_390c = local_unnamed_addr constant i32 71120
@global_var_14ed0 = local_unnamed_addr global i32 0
@global_var_14ed8 = global i32 14720
@global_var_150a0 = external global i8*

declare i32 @unknown_90(i32) local_unnamed_addr

define i32 @_init(i32 %arg1, i32 %arg2, i32 %arg3, i32 %arg4) local_unnamed_addr {
dec_label_pc_d2c:
  %0 = call i32 @call_weak_fn(), !insn.addr !0
  ret i32 %0, !insn.addr !1
}

define i32 @"$a"(i32 %arg1) local_unnamed_addr {
dec_label_pc_d4c:
  %0 = call i32 @function_e3a02001(), !insn.addr !2
  ret i32 %0, !insn.addr !2
}

define i32 @function_d58(i32 %arg1) local_unnamed_addr {
dec_label_pc_d58:
  %0 = call i32 @function_e59f3018(), !insn.addr !3
  ret i32 %0, !insn.addr !3
}

define i32 @function_d64(i32 %arg1) local_unnamed_addr {
dec_label_pc_d64:
  %0 = call i32 @function_e08f3003(), !insn.addr !4
  ret i32 %0, !insn.addr !4
}

define i32 @function_d70(i32 %arg1) local_unnamed_addr {
dec_label_pc_d70:
  %0 = call i32 @function_e5c32000(), !insn.addr !5
  ret i32 %0, !insn.addr !5
}

define i32 @function_d7c(i32* %arg1, i32 %arg2) local_unnamed_addr {
dec_label_pc_d7c:
  %0 = call i32 @function_e8bd8010(), !insn.addr !6
  ret i32 %0, !insn.addr !6
}

define i32 @function_d88(i32* %arg1, i32 %arg2, i32* %arg3) local_unnamed_addr {
dec_label_pc_d88:
  %0 = call i32 @function_140b0(), !insn.addr !7
  ret i32 %0, !insn.addr !7
}

define i32 @function_d94(i32 %arg1, i32 %arg2) local_unnamed_addr {
dec_label_pc_d94:
  %0 = call i32 @function_14008(), !insn.addr !8
  ret i32 %0, !insn.addr !8
}

define i32 @function_da0(i32 %arg1) local_unnamed_addr {
dec_label_pc_da0:
  %0 = call i32 @unknown_90(i32 %arg1), !insn.addr !9
  ret i32 %0, !insn.addr !9
}

define i32 @function_dac(i32 %arg1, i32 %arg2) local_unnamed_addr {
dec_label_pc_dac:
  %0 = call i32 @function_14080(), !insn.addr !10
  ret i32 %0, !insn.addr !10
}

define i32 @function_db8(i32 %arg1) local_unnamed_addr {
dec_label_pc_db8:
  %0 = call i32 @function_14070(), !insn.addr !11
  ret i32 %0, !insn.addr !11
}

define i32 @function_dc4(i32 %arg1) local_unnamed_addr {
dec_label_pc_dc4:
  %0 = call i32 @function_eaffffd0(), !insn.addr !12
  ret i32 %0, !insn.addr !12
}

define i32 @function_dd0(i32 %arg1, i32* %arg2, i32* %arg3, i32 %arg4, i32 %arg5) local_unnamed_addr {
dec_label_pc_dd0:
  %0 = call i32 @function_e92d4800(), !insn.addr !13
  ret i32 %0, !insn.addr !13
}

define i32 @function_ddc(i32 %arg1, i32 %arg2, i32 %arg3) local_unnamed_addr {
dec_label_pc_ddc:
  %0 = call i32 @function_e1a0b00d(), !insn.addr !14
  ret i32 %0, !insn.addr !14
}

define i32 @function_de8(i32 %arg1) local_unnamed_addr {
dec_label_pc_de8:
  %0 = call i32 @function_e24dd038(), !insn.addr !15
  ret i32 %0, !insn.addr !15
}

define i32 @function_df4() local_unnamed_addr {
dec_label_pc_df4:
  %0 = call i32 @function_e59f2064(), !insn.addr !16
  ret i32 %0, !insn.addr !16
}

define i32 @function_e00(i32 %arg1) local_unnamed_addr {
dec_label_pc_e00:
  %0 = call i32 @function_e08f2002(), !insn.addr !17
  ret i32 %0, !insn.addr !17
}

define i32 @function_e0c() local_unnamed_addr {
dec_label_pc_e0c:
  %0 = call i32 @function_e28d0014(), !insn.addr !18
  ret i32 %0, !insn.addr !18
}

define i32 @function_e18(i32 %arg1, i32 %arg2) local_unnamed_addr {
dec_label_pc_e18:
  %0 = call i32 @function_e58d0004(), !insn.addr !19
  ret i32 %0, !insn.addr !19
}

define i32 @function_e24() local_unnamed_addr {
dec_label_pc_e24:
  %0 = call i32 @function_e3a01005(), !insn.addr !20
  ret i32 %0, !insn.addr !20
}

define i32 @function_e3c(i32 %arg1, i32 %arg2, i32 %arg3) local_unnamed_addr {
dec_label_pc_e3c:
  %0 = call i32 @function_e59d0004(), !insn.addr !21
  ret i32 %0, !insn.addr !21
}

define i32 @function_e48(i32 %arg1, i32 %arg2, i32 %arg3) local_unnamed_addr {
dec_label_pc_e48:
  %0 = call i32 @function_e3a0100a(), !insn.addr !22
  ret i32 %0, !insn.addr !22
}

define i32 @function_e54(i32 %arg1, i32 %arg2, i32 %arg3, i32 %arg4, i32 %arg5, i32 %arg6) local_unnamed_addr {
dec_label_pc_e54:
  %0 = call i32 @function_eb0004f1(), !insn.addr !23
  ret i32 %0, !insn.addr !23
}

define i32 @function_e60(i32 %arg1, i32 %arg2, i32 %arg3) local_unnamed_addr {
dec_label_pc_e60:
  %0 = call i32 @function_e59d0004(), !insn.addr !24
  ret i32 %0, !insn.addr !24
}

define i32 @function_e6c() local_unnamed_addr {
dec_label_pc_e6c:
  %0 = call i32 @function_eb0004f7(), !insn.addr !25
  ret i32 %0, !insn.addr !25
}

define i32 @function_e78(i32 %arg1) local_unnamed_addr {
dec_label_pc_e78:
  %0 = call i32 @function_e1a01000(), !insn.addr !26
  ret i32 %0, !insn.addr !26
}

define i32 @__cxx_global_var_init() local_unnamed_addr {
dec_label_pc_e84:
  %0 = call i32 @function_e0c(), !insn.addr !27
  %1 = load i32, i32* @global_var_15094, align 4, !insn.addr !28
  %2 = call i32 @function_ddc(i32 %1, i32 ptrtoint (i32* @global_var_150a4 to i32), i32 86172), !insn.addr !29
  ret i32 %2, !insn.addr !30
}

define i32 @_GLOBAL__sub_I_5_1.cpp() local_unnamed_addr {
dec_label_pc_ed0:
  %0 = call i32 @__cxx_global_var_init(), !insn.addr !31
  ret i32 %0, !insn.addr !32
}

define i32 @_start(i32 %arg1, i32 %arg2) local_unnamed_addr {
dec_label_pc_ee4:
  %stack_var_4 = alloca i32, align 4
  %0 = call i32 @function_d88(i32* nonnull @global_var_1fb4, i32 %arg2, i32* nonnull %stack_var_4), !insn.addr !33
  %1 = call i32 @unknown_90(i32 %0), !insn.addr !34
  ret i32 %1, !insn.addr !34
}

define i32 @call_weak_fn() local_unnamed_addr {
dec_label_pc_f28:
  %0 = alloca i32
  %1 = load i32, i32* %0
  %2 = load i32, i32* @global_var_15088, align 4, !insn.addr !35
  %3 = icmp eq i32 %2, 0, !insn.addr !36
  br i1 %3, label %4, label %dec_label_pc_f40, !insn.addr !37

; <label>:4:                                      ; preds = %dec_label_pc_f28
  ret i32 %1, !insn.addr !37

dec_label_pc_f40:                                 ; preds = %dec_label_pc_f28
  %5 = call i32 @function_e6c(), !insn.addr !38
  ret i32 %5, !insn.addr !38
}

define i32 @deregister_tm_clones() local_unnamed_addr {
dec_label_pc_f4c:
  ret i32 ptrtoint (i8** @global_var_150a0 to i32), !insn.addr !39
}

define i32 @register_tm_clones() local_unnamed_addr {
dec_label_pc_f90:
  ret i32 ptrtoint (i8** @global_var_150a0 to i32), !insn.addr !40
}

define i32 @__do_global_dtors_aux() local_unnamed_addr {
dec_label_pc_fe0:
  %0 = alloca i32
  %1 = load i32, i32* %0
  %2 = load i8, i8* bitcast (i8** @global_var_150a0 to i8*), align 4, !insn.addr !41
  %3 = icmp eq i8 %2, 0, !insn.addr !42
  br i1 %3, label %dec_label_pc_ffc, label %4, !insn.addr !43

; <label>:4:                                      ; preds = %dec_label_pc_fe0
  ret i32 %1, !insn.addr !43

dec_label_pc_ffc:                                 ; preds = %dec_label_pc_fe0
  %5 = load i32, i32* @global_var_15090, align 4, !insn.addr !44
  %6 = icmp eq i32 %5, 0, !insn.addr !45
  br i1 %6, label %dec_label_pc_101c, label %dec_label_pc_1010, !insn.addr !46

dec_label_pc_1010:                                ; preds = %dec_label_pc_ffc
  %7 = load i32, i32* @global_var_1509c, align 4, !insn.addr !47
  %8 = call i32 @function_e78(i32 %7), !insn.addr !48
  br label %dec_label_pc_101c, !insn.addr !48

dec_label_pc_101c:                                ; preds = %dec_label_pc_1010, %dec_label_pc_ffc
  %9 = call i32 @deregister_tm_clones(), !insn.addr !49
  store i8 1, i8* bitcast (i8** @global_var_150a0 to i8*), align 4, !insn.addr !50
  ret i32 %9, !insn.addr !51

; uselistorder directives
  uselistorder i8** @global_var_150a0, { 1, 0 }
}

define i32 @frame_dummy() local_unnamed_addr {
dec_label_pc_1048:
  %0 = call i32 @register_tm_clones(), !insn.addr !52
  ret i32 %0, !insn.addr !52
}

define i32 @_Z20test_cpp_member_funcv() local_unnamed_addr {
dec_label_pc_104c:
  %stack_var_-44 = alloca i32, align 4
  %0 = call i32 @_ZN11SimpleClassC2EiPKc(i32* nonnull %stack_var_-44, i32 5, i8* getelementptr inbounds ([5 x i8], [5 x i8]* @global_var_421c, i32 0, i32 0)), !insn.addr !53
  %1 = call i32 @_ZN11SimpleClass8setValueEi(i32* nonnull %stack_var_-44, i32 10), !insn.addr !54
  %2 = call i32 @_ZNK11SimpleClass8getValueEv(i32* nonnull %stack_var_-44), !insn.addr !55
  %3 = call i32 @_ZNK11SimpleClass7computeEi(i32* nonnull %stack_var_-44, i32 3), !insn.addr !56
  %4 = call i32 @_ZN11SimpleClass10getClassIDEv(), !insn.addr !57
  %5 = add i32 %3, %2, !insn.addr !58
  %6 = add i32 %5, %4, !insn.addr !59
  ret i32 %6, !insn.addr !60
}

define i32 @_Z20test_cpp_constructorv() local_unnamed_addr {
dec_label_pc_10c8:
  %stack_var_-20 = alloca i32, align 4
  %0 = call i32 @_ZN14LifecycleClassC2Ej(i32* nonnull %stack_var_-20, i32 5), !insn.addr !61
  %1 = call i32 @_ZNK14LifecycleClass7getDataEj(i32* nonnull %stack_var_-20, i32 2), !insn.addr !62
  %2 = call i32 @_ZN14LifecycleClass16getInstanceCountEv(), !insn.addr !63
  %3 = add i32 %2, %1, !insn.addr !64
  %4 = call i32 @_ZN14LifecycleClassD2Ev(i32* nonnull %stack_var_-20), !insn.addr !65
  %5 = call i32 @_ZN14LifecycleClass16getInstanceCountEv(), !insn.addr !66
  %6 = mul i32 %5, ptrtoint ([3 x i32]* @global_var_3e8 to i32), !insn.addr !67
  %7 = add i32 %3, %6, !insn.addr !67
  ret i32 %7, !insn.addr !68

; uselistorder directives
  uselistorder i32 ()* @_ZN14LifecycleClass16getInstanceCountEv, { 1, 0 }
}

define i32 @function_115c(i32 %arg1, i32 %arg2) local_unnamed_addr {
dec_label_pc_115c:
  %0 = alloca i32
  %1 = load i32, i32* %0
  %2 = add i32 %1, -12, !insn.addr !69
  %3 = inttoptr i32 %2 to i32*, !insn.addr !70
  %4 = call i32 @_ZN14LifecycleClassD2Ev(i32* %3), !insn.addr !70
  %5 = call i32 @function_dc4(i32 %4), !insn.addr !71
  ret i32 %5, !insn.addr !71

; uselistorder directives
  uselistorder i32 (i32*)* @_ZN14LifecycleClassD2Ev, { 1, 0 }
}

define i32 @_Z17call_virtual_funcP4Basei(i32* %arg1, i32 %arg2) local_unnamed_addr {
dec_label_pc_1174:
  %0 = ptrtoint i32* %arg1 to i32
  ret i32 %0, !insn.addr !72
}

define i32 @_Z21test_cpp_virtual_funcv() local_unnamed_addr {
dec_label_pc_11ac:
  %stack_var_-20 = alloca i32, align 4
  %stack_var_-12 = alloca i32, align 4
  %0 = call i32 @_ZN4BaseC2Ev(i32* nonnull %stack_var_-12), !insn.addr !73
  %1 = call i32 @_ZN7DerivedC2Ei(i32* nonnull %stack_var_-20, i32 3), !insn.addr !74
  %2 = call i32 @_ZN4Base12virtual_funcEi(i32* nonnull %stack_var_-12, i32 5), !insn.addr !75
  %3 = call i32 @_ZN7Derived12virtual_funcEi(i32* nonnull %stack_var_-20, i32 5), !insn.addr !76
  %4 = call i32 @_Z17call_virtual_funcP4Basei(i32* nonnull %stack_var_-12, i32 5), !insn.addr !77
  %5 = call i32 @_Z17call_virtual_funcP4Basei(i32* nonnull %stack_var_-20, i32 5), !insn.addr !78
  %6 = add i32 %3, %2, !insn.addr !79
  %7 = add i32 %6, %4, !insn.addr !80
  %8 = add i32 %7, %5, !insn.addr !81
  %9 = call i32 @_ZN7DerivedD2Ev(i32* nonnull %stack_var_-20), !insn.addr !82
  %10 = call i32 @_ZN4BaseD2Ev(i32* nonnull %stack_var_-12), !insn.addr !83
  ret i32 %8, !insn.addr !84

; uselistorder directives
  uselistorder i32* %stack_var_-20, { 1, 0, 2, 3 }
  uselistorder i32 (i32*, i32)* @_Z17call_virtual_funcP4Basei, { 1, 0 }
}

define i32 @function_1290(i32 %arg1, i32 %arg2) local_unnamed_addr {
dec_label_pc_1290:
  %0 = alloca i32
  %1 = load i32, i32* %0
  %2 = add i32 %1, -16, !insn.addr !85
  %3 = inttoptr i32 %2 to i32*, !insn.addr !85
  store i32 %arg1, i32* %3, align 4, !insn.addr !85
  %4 = add i32 %1, -20, !insn.addr !86
  %5 = inttoptr i32 %4 to i32*, !insn.addr !86
  store i32 %arg2, i32* %5, align 4, !insn.addr !86
  %6 = call i32 @function_12b0(), !insn.addr !87
  ret i32 %6, !insn.addr !87

; uselistorder directives
  uselistorder i32 %1, { 1, 0 }
}

define i32 @function_129c(i32 %arg1, i32 %arg2) local_unnamed_addr {
dec_label_pc_129c:
  %0 = alloca i32
  %1 = load i32, i32* %0
  %2 = add i32 %1, -16, !insn.addr !88
  %3 = inttoptr i32 %2 to i32*, !insn.addr !88
  store i32 %arg1, i32* %3, align 4, !insn.addr !88
  %4 = add i32 %1, -20, !insn.addr !89
  %5 = inttoptr i32 %4 to i32*, !insn.addr !89
  store i32 %arg2, i32* %5, align 4, !insn.addr !89
  %6 = add i32 %1, -12, !insn.addr !90
  %7 = inttoptr i32 %6 to i32*, !insn.addr !91
  %8 = call i32 @_ZN7DerivedD2Ev(i32* %7), !insn.addr !91
  %9 = call i32 @function_12b0(), !insn.addr !92
  ret i32 %9, !insn.addr !92

; uselistorder directives
  uselistorder i32 %1, { 2, 1, 0 }
  uselistorder i32 ()* @function_12b0, { 1, 0 }
}

define i32 @function_12b0() local_unnamed_addr {
dec_label_pc_12b0:
  %0 = alloca i32
  %1 = load i32, i32* %0
  %2 = add i32 %1, -4, !insn.addr !93
  %3 = inttoptr i32 %2 to i32*, !insn.addr !94
  %4 = call i32 @_ZN4BaseD2Ev(i32* %3), !insn.addr !94
  %5 = call i32 @function_dc4(i32 %4), !insn.addr !95
  ret i32 %5, !insn.addr !95
}

define i32 @_Z29test_cpp_multiple_inheritancev() local_unnamed_addr {
dec_label_pc_12c0:
  %stack_var_-16 = alloca i32, align 4
  %stack_var_-24 = alloca i32, align 4
  %0 = ptrtoint i32* %stack_var_-24 to i32, !insn.addr !96
  %1 = call i32 @_ZN12MultiDerivedC2Ev(i32* nonnull %stack_var_-24), !insn.addr !97
  %2 = ptrtoint i32* %stack_var_-16 to i32, !insn.addr !98
  %3 = add i32 %0, %2, !insn.addr !99
  %4 = or i32 %3, 1, !insn.addr !100
  %5 = call i32 @_ZN12MultiDerivedD2Ev(i32* nonnull %stack_var_-24), !insn.addr !101
  ret i32 %4, !insn.addr !102
}

define i32 @function_13a8(i32 %arg1, i32 %arg2) local_unnamed_addr {
dec_label_pc_13a8:
  %0 = alloca i32
  %1 = load i32, i32* %0
  %2 = add i32 %1, -16, !insn.addr !103
  %3 = inttoptr i32 %2 to i32*, !insn.addr !104
  %4 = call i32 @_ZN12MultiDerivedD2Ev(i32* %3), !insn.addr !104
  %5 = call i32 @function_dc4(i32 %4), !insn.addr !105
  ret i32 %5, !insn.addr !105
}

define i32 @_Z28test_cpp_diamond_inheritancev() local_unnamed_addr {
dec_label_pc_13c0:
  %stack_var_-32 = alloca i32, align 4
  %0 = ptrtoint i32* %stack_var_-32 to i32, !insn.addr !106
  %1 = call i32 @_ZN14DiamondDerivedC1Ev(i32* nonnull %stack_var_-32), !insn.addr !107
  %2 = load i32, i32* %stack_var_-32, align 4, !insn.addr !108
  %3 = add i32 %2, -12, !insn.addr !109
  %4 = inttoptr i32 %3 to i32*, !insn.addr !109
  %5 = load i32, i32* %4, align 4, !insn.addr !109
  %6 = add i32 %0, 4, !insn.addr !110
  %7 = add i32 %6, %5, !insn.addr !111
  %8 = inttoptr i32 %7 to i32*, !insn.addr !111
  store i32 50, i32* %8, align 4, !insn.addr !111
  %9 = load i32, i32* %stack_var_-32, align 4
  %10 = add i32 %9, -12, !insn.addr !112
  %11 = inttoptr i32 %10 to i32*, !insn.addr !112
  %12 = load i32, i32* %11, align 4, !insn.addr !112
  %13 = add i32 %12, %0, !insn.addr !113
  %14 = add i32 %13, 4, !insn.addr !114
  %15 = inttoptr i32 %14 to i32*, !insn.addr !114
  store i32 100, i32* %15, align 4, !insn.addr !114
  %16 = mul i32 %13, 2, !insn.addr !115
  %17 = call i32 @_ZN14DiamondDerivedD1Ev(i32* nonnull %stack_var_-32), !insn.addr !116
  ret i32 %16, !insn.addr !117

; uselistorder directives
  uselistorder i32* %stack_var_-32, { 0, 2, 3, 1, 4 }
}

define i32 @function_14ac(i32 %arg1, i32 %arg2) local_unnamed_addr {
dec_label_pc_14ac:
  %0 = alloca i32
  %1 = load i32, i32* %0
  %2 = add i32 %1, -24, !insn.addr !118
  %3 = inttoptr i32 %2 to i32*, !insn.addr !119
  %4 = call i32 @_ZN14DiamondDerivedD1Ev(i32* %3), !insn.addr !119
  %5 = call i32 @function_dc4(i32 %4), !insn.addr !120
  ret i32 %5, !insn.addr !120
}

define i32 @_Z26test_cpp_operator_overloadv() local_unnamed_addr {
dec_label_pc_14c4:
  %0 = alloca i32
  %1 = load i32, i32* %0
  %stack_var_-32 = alloca i32, align 4
  %stack_var_-24 = alloca i32, align 4
  %stack_var_-16 = alloca i32, align 4
  %2 = call i32 @_ZN5PointC2Eii(i32* nonnull %stack_var_-16, i32 1, i32 2), !insn.addr !121
  %3 = call i32 @_ZN5PointC2Eii(i32* nonnull %stack_var_-24, i32 3, i32 4), !insn.addr !122
  %4 = call i32 @_ZNK5PointplERKS_(i32* nonnull %stack_var_-32, i32* nonnull %stack_var_-16, i32* nonnull %stack_var_-24), !insn.addr !123
  %5 = call i32 @_ZNK5PointeqERKS_(i32* nonnull %stack_var_-16, i32* nonnull %stack_var_-24), !insn.addr !124
  %6 = call i32 @_ZN5PointppEv(i32* nonnull %stack_var_-32), !insn.addr !125
  %7 = load i32, i32* %stack_var_-32, align 4, !insn.addr !126
  %8 = add i32 %7, %1, !insn.addr !127
  %9 = add i32 %8, 10, !insn.addr !128
  %10 = urem i32 %5, 2, !insn.addr !129
  %11 = icmp eq i32 %10, 0, !insn.addr !129
  %spec.select = select i1 %11, i32 %9, i32 %8
  ret i32 %spec.select, !insn.addr !130

; uselistorder directives
  uselistorder i32* %stack_var_-32, { 2, 0, 1 }
}

define i32 @_Z22test_cpp_template_funcv() local_unnamed_addr {
dec_label_pc_1550:
  %stack_var_-32 = alloca i32, align 4
  %stack_var_-28 = alloca i32, align 4
  %0 = call i32 @_Z12template_maxIiET_S0_S0_(i32 3, i32 7), !insn.addr !131
  %1 = call double @_Z12template_maxIdET_S0_S0_(i32* null, i32* inttoptr (i32 1074003968 to i32*), double 0.000000e+00, double 0x3FF80000), !insn.addr !132
  %2 = fptrunc double %1 to float, !insn.addr !132
  %3 = bitcast float %2 to i32, !insn.addr !132
  store i32 10, i32* %stack_var_-28, align 4, !insn.addr !133
  store i32 20, i32* %stack_var_-32, align 4, !insn.addr !134
  call void @_Z13template_swapIiEvRT_S1_(i32* nonnull %stack_var_-28, i32* nonnull %stack_var_-32), !insn.addr !135
  %4 = call i32 @function_e18(i32 %3, i32 1074003968), !insn.addr !136
  %5 = add i32 %4, %0, !insn.addr !137
  %6 = load i32, i32* %stack_var_-28, align 4, !insn.addr !138
  %7 = add i32 %5, %6, !insn.addr !139
  %8 = load i32, i32* %stack_var_-32, align 4, !insn.addr !140
  %9 = add i32 %7, %8, !insn.addr !141
  ret i32 %9, !insn.addr !142

; uselistorder directives
  uselistorder i32* %stack_var_-28, { 1, 0, 2 }
  uselistorder i32* %stack_var_-32, { 1, 0, 2 }
  uselistorder i32 1074003968, { 1, 0 }
}

define i32 @_Z23test_cpp_template_classv() local_unnamed_addr {
dec_label_pc_15e8:
  %stack_var_-152 = alloca i32, align 4
  %stack_var_-52 = alloca i32, align 4
  %0 = call i32 @_ZN9ContainerIiEC1Ev(i32* nonnull %stack_var_-52), !insn.addr !143
  %1 = call i32 @_ZN9ContainerIiE4pushEi(i32* nonnull %stack_var_-52, i32 10), !insn.addr !144
  %2 = call i32 @_ZN9ContainerIiE4pushEi(i32* nonnull %stack_var_-52, i32 20), !insn.addr !145
  %3 = call i32 @_ZN9ContainerIiE4pushEi(i32* nonnull %stack_var_-52, i32 30), !insn.addr !146
  %4 = call i32 @_ZNK9ContainerIiE3getEi(i32* nonnull %stack_var_-52, i32 0), !insn.addr !147
  %5 = call i32 @_ZNK9ContainerIiE7getSizeEv(i32* nonnull %stack_var_-52), !insn.addr !148
  %6 = ptrtoint i32* %stack_var_-152 to i32, !insn.addr !149
  %7 = call i32 @_ZN9ContainerIdEC1Ev(i32* nonnull %stack_var_-152), !insn.addr !150
  %8 = call i32 @_ZN9ContainerIdE4pushEd(i32 %6, i32 %4, i32 1374389535, i32 1074339512), !insn.addr !151
  %9 = call i32 @_ZNK9ContainerIdE3getEi(i32* nonnull %stack_var_-152, i32 0), !insn.addr !152
  %10 = add i32 %5, %4, !insn.addr !153
  %11 = call i32 @function_e18(i32 %9, i32 0), !insn.addr !154
  %12 = add i32 %10, %11, !insn.addr !155
  ret i32 %12, !insn.addr !156

; uselistorder directives
  uselistorder i32 (i32, i32)* @function_e18, { 1, 0 }
  uselistorder i32 (i32*, i32)* @_ZN9ContainerIiE4pushEi, { 2, 1, 0 }
}

define i32 @_Z15test_cpp_lambdav() local_unnamed_addr {
dec_label_pc_16b4:
  %stack_var_-28 = alloca i32, align 4
  %stack_var_-24 = alloca i32, align 4
  store i32 10, i32* %stack_var_-24, align 4, !insn.addr !157
  %0 = call i32 @"_ZZ15test_cpp_lambdavENK3$_1clEi"(i32* nonnull %stack_var_-24, i32 3), !insn.addr !158
  %1 = call i32 @"_ZZ15test_cpp_lambdavENK3$_0clIiiEEDaT_T0_"(i32* nonnull %stack_var_-28, i32 10, i32 20), !insn.addr !159
  %2 = add i32 %1, %0, !insn.addr !160
  ret i32 %2, !insn.addr !161
}

define i32 @"_ZZ15test_cpp_lambdavENK3$_1clEi"(i32* %result, i32 %arg2) local_unnamed_addr {
dec_label_pc_1724:
  %0 = ptrtoint i32* %result to i32
  %1 = add i32 %0, 4, !insn.addr !162
  %2 = inttoptr i32 %1 to i32*, !insn.addr !162
  %3 = load i32, i32* %2, align 4, !insn.addr !162
  %4 = inttoptr i32 %3 to i32*, !insn.addr !163
  %5 = load i32, i32* %4, align 4, !insn.addr !163
  %6 = add i32 %5, 5, !insn.addr !164
  store i32 %6, i32* %4, align 4, !insn.addr !165
  %7 = load i32, i32* %2, align 4, !insn.addr !166
  %8 = inttoptr i32 %7 to i32*, !insn.addr !167
  %9 = load i32, i32* %8, align 4, !insn.addr !167
  %10 = mul i32 %0, %arg2, !insn.addr !168
  %11 = add i32 %9, %10, !insn.addr !168
  ret i32 %11, !insn.addr !169
}

define i32 @"_ZZ15test_cpp_lambdavENK3$_0clIiiEEDaT_T0_"(i32* %result, i32 %arg2, i32 %arg3) local_unnamed_addr {
dec_label_pc_1760:
  %0 = add i32 %arg3, %arg2, !insn.addr !170
  ret i32 %0, !insn.addr !171
}

define i32 @_Z18test_cpp_exceptionv() local_unnamed_addr {
dec_label_pc_1784:
  %0 = call i32 @function_d70(i32 4), !insn.addr !172
  %1 = inttoptr i32 %0 to i32*, !insn.addr !173
  store i32 42, i32* %1, align 4, !insn.addr !173
  %2 = load i32, i32* @global_var_1507c, align 4, !insn.addr !174
  %3 = call i32 @function_e48(i32 %0, i32 %2, i32 0), !insn.addr !175
  ret i32 %3, !insn.addr !176

; uselistorder directives
  uselistorder i32 %0, { 1, 0 }
}

define i32 @function_17c0(i32 %arg1, i32 %arg2, i32 %arg3) local_unnamed_addr {
dec_label_pc_17c0:
  %0 = alloca i32
  %1 = load i32, i32* %0
  %2 = add i32 %1, -8, !insn.addr !177
  %3 = inttoptr i32 %2 to i32*, !insn.addr !177
  store i32 %arg1, i32* %3, align 4, !insn.addr !177
  %4 = add i32 %1, -12, !insn.addr !178
  %5 = inttoptr i32 %4 to i32*, !insn.addr !178
  store i32 %arg2, i32* %5, align 4, !insn.addr !178
  %6 = icmp eq i32 %arg2, 1, !insn.addr !179
  br i1 %6, label %dec_label_pc_17dc, label %dec_label_pc_18e8, !insn.addr !180

dec_label_pc_17dc:                                ; preds = %dec_label_pc_17c0
  %7 = load i32, i32* %3, align 4, !insn.addr !181
  %8 = call i32 @function_d64(i32 %7), !insn.addr !182
  %9 = inttoptr i32 %8 to i32*, !insn.addr !183
  %10 = load i32, i32* %9, align 4, !insn.addr !183
  %11 = add i32 %1, -16, !insn.addr !184
  %12 = inttoptr i32 %11 to i32*, !insn.addr !184
  store i32 %10, i32* %12, align 4, !insn.addr !184
  %13 = add i32 %1, -4, !insn.addr !185
  %14 = inttoptr i32 %13 to i32*, !insn.addr !185
  %15 = load i32, i32* %14, align 4, !insn.addr !185
  %16 = add i32 %15, %10, !insn.addr !186
  store i32 %16, i32* %14, align 4, !insn.addr !187
  %17 = call i32 @function_df4(), !insn.addr !188
  ret i32 %17, !insn.addr !189

dec_label_pc_18e8:                                ; preds = %dec_label_pc_17c0
  %18 = call i32 @function_dc4(i32 %arg2), !insn.addr !190
  ret i32 %18, !insn.addr !190

; uselistorder directives
  uselistorder i32 %1, { 3, 2, 1, 0 }
  uselistorder i32 %arg2, { 1, 0, 2 }
}

define i32 @_Z18test_cpp_smart_ptrv() local_unnamed_addr {
dec_label_pc_18f4:
  %stack_var_-40 = alloca i32, align 4
  %stack_var_-44 = alloca i32, align 4
  %stack_var_-32 = alloca i32, align 4
  %stack_var_-24 = alloca i32, align 4
  %stack_var_-12 = alloca i32, align 4
  %0 = call i32 @"$a"(i32 4), !insn.addr !191
  %1 = inttoptr i32 %0 to i32*, !insn.addr !192
  store i32 100, i32* %1, align 4, !insn.addr !192
  %2 = call i32 @_ZNSt10unique_ptrIiSt14default_deleteIiEEC2IS1_vEEPi(i32* nonnull %stack_var_-12, i32* %1), !insn.addr !193
  %3 = call i32 @_ZNKSt10unique_ptrIiSt14default_deleteIiEEdeEv(i32* nonnull %stack_var_-12), !insn.addr !194
  %4 = inttoptr i32 %3 to i32*, !insn.addr !195
  store i32 200, i32* %4, align 4, !insn.addr !195
  %5 = bitcast i32* %stack_var_-12 to i32**, !insn.addr !196
  %6 = call i32* @_ZSt4moveIRSt10unique_ptrIiSt14default_deleteIiEEEONSt16remove_referenceIT_E4typeEOS6_(i32** nonnull %5), !insn.addr !196
  %7 = ptrtoint i32* %6 to i32, !insn.addr !196
  %8 = call i32 @_ZNSt10unique_ptrIiSt14default_deleteIiEEC2EOS2_(i32* nonnull %stack_var_-24, i32* %6), !insn.addr !197
  %9 = call i32 @_ZNKSt10unique_ptrIiSt14default_deleteIiEEdeEv(i32* nonnull %stack_var_-24), !insn.addr !198
  %10 = inttoptr i32 %9 to i32*, !insn.addr !199
  %11 = load i32, i32* %10, align 4, !insn.addr !199
  %12 = call i32 @function_d94(i32 20, i32 %7), !insn.addr !200
  %13 = inttoptr i32 %12 to i32*, !insn.addr !201
  store i32 1, i32* %13, align 4, !insn.addr !201
  %14 = add i32 %12, 4, !insn.addr !202
  %15 = inttoptr i32 %14 to i32*, !insn.addr !202
  store i32 2, i32* %15, align 4, !insn.addr !202
  %16 = add i32 %12, 8, !insn.addr !203
  %17 = inttoptr i32 %16 to i32*, !insn.addr !203
  store i32 3, i32* %17, align 4, !insn.addr !203
  %18 = add i32 %12, 12, !insn.addr !204
  %19 = inttoptr i32 %18 to i32*, !insn.addr !204
  store i32 4, i32* %19, align 4, !insn.addr !204
  %20 = add i32 %12, 16, !insn.addr !205
  %21 = inttoptr i32 %20 to i32*, !insn.addr !205
  store i32 5, i32* %21, align 4, !insn.addr !205
  %22 = call i32 @_ZNSt10unique_ptrIA_iSt14default_deleteIS0_EEC2IPiS2_vbEET_(i32* nonnull %stack_var_-32, i32* %13), !insn.addr !206
  %23 = call i32 @_ZNKSt10unique_ptrIA_iSt14default_deleteIS0_EEixEj(i32* nonnull %stack_var_-32, i32 2), !insn.addr !207
  %24 = inttoptr i32 %23 to i32*, !insn.addr !208
  %25 = load i32, i32* %24, align 4, !insn.addr !208
  %26 = call i32 @"$a"(i32 4), !insn.addr !209
  %27 = inttoptr i32 %26 to i32*, !insn.addr !210
  store i32 ptrtoint (i32* @global_var_1f4 to i32), i32* %27, align 4, !insn.addr !210
  %28 = call i32 @"_ZNSt10unique_ptrIiZ18test_cpp_smart_ptrvE3$_2EC2IS0_vEEPiRKS0_"(i32* nonnull %stack_var_-44, i32* %27, i32* nonnull %stack_var_-40), !insn.addr !211
  %29 = call i32 @"_ZNKSt10unique_ptrIiZ18test_cpp_smart_ptrvE3$_2EdeEv"(i32* nonnull %stack_var_-44), !insn.addr !212
  %30 = inttoptr i32 %29 to i32*, !insn.addr !213
  %31 = load i32, i32* %30, align 4, !insn.addr !213
  %32 = add i32 %25, %11, !insn.addr !214
  %33 = add i32 %32, %31, !insn.addr !215
  %34 = call i32 @"_ZNSt10unique_ptrIiZ18test_cpp_smart_ptrvE3$_2ED2Ev"(i32* nonnull %stack_var_-44), !insn.addr !216
  %35 = call i32 @_ZNSt10unique_ptrIA_iSt14default_deleteIS0_EED2Ev(i32* nonnull %stack_var_-32), !insn.addr !217
  %36 = call i32 @_ZNSt10unique_ptrIiSt14default_deleteIiEED2Ev(i32* nonnull %stack_var_-24), !insn.addr !218
  %37 = call i32 @_ZNSt10unique_ptrIiSt14default_deleteIiEED2Ev(i32* nonnull %stack_var_-12), !insn.addr !219
  ret i32 %33, !insn.addr !220

; uselistorder directives
  uselistorder i32 %12, { 2, 1, 3, 4, 0 }
  uselistorder i32 5, { 0, 7, 1, 2, 3, 4, 5, 6 }
  uselistorder i32 (i32*)* @_ZNKSt10unique_ptrIiSt14default_deleteIiEEdeEv, { 1, 0 }
}

define i32 @function_1a6c(i32 %arg1, i32 %arg2) local_unnamed_addr {
dec_label_pc_1a6c:
  %0 = alloca i32
  %1 = load i32, i32* %0
  %2 = add i32 %1, -8, !insn.addr !221
  %3 = inttoptr i32 %2 to i32*, !insn.addr !221
  store i32 %arg1, i32* %3, align 4, !insn.addr !221
  %4 = add i32 %1, -12, !insn.addr !222
  %5 = inttoptr i32 %4 to i32*, !insn.addr !222
  store i32 %arg2, i32* %5, align 4, !insn.addr !222
  %6 = call i32 @function_1abc(), !insn.addr !223
  ret i32 %6, !insn.addr !223

; uselistorder directives
  uselistorder i32 %1, { 1, 0 }
}

define i32 @function_1a78(i32 %arg1, i32 %arg2) local_unnamed_addr {
dec_label_pc_1a78:
  %0 = alloca i32
  %1 = load i32, i32* %0
  %2 = add i32 %1, -8, !insn.addr !224
  %3 = inttoptr i32 %2 to i32*, !insn.addr !224
  store i32 %arg1, i32* %3, align 4, !insn.addr !224
  %4 = add i32 %1, -12, !insn.addr !225
  %5 = inttoptr i32 %4 to i32*, !insn.addr !225
  store i32 %arg2, i32* %5, align 4, !insn.addr !225
  %6 = call i32 @function_1ab0(), !insn.addr !226
  ret i32 %6, !insn.addr !226

; uselistorder directives
  uselistorder i32 %1, { 1, 0 }
}

define i32 @function_1a84(i32 %arg1, i32 %arg2) local_unnamed_addr {
dec_label_pc_1a84:
  %0 = alloca i32
  %1 = load i32, i32* %0
  %2 = add i32 %1, -8, !insn.addr !227
  %3 = inttoptr i32 %2 to i32*, !insn.addr !227
  store i32 %arg1, i32* %3, align 4, !insn.addr !227
  %4 = add i32 %1, -12, !insn.addr !228
  %5 = inttoptr i32 %4 to i32*, !insn.addr !228
  store i32 %arg2, i32* %5, align 4, !insn.addr !228
  %6 = call i32 @function_1aa4(), !insn.addr !229
  ret i32 %6, !insn.addr !229

; uselistorder directives
  uselistorder i32 %1, { 1, 0 }
}

define i32 @function_1a90(i32 %arg1, i32 %arg2) local_unnamed_addr {
dec_label_pc_1a90:
  %0 = alloca i32
  %1 = load i32, i32* %0
  %2 = add i32 %1, -8, !insn.addr !230
  %3 = inttoptr i32 %2 to i32*, !insn.addr !230
  store i32 %arg1, i32* %3, align 4, !insn.addr !230
  %4 = add i32 %1, -12, !insn.addr !231
  %5 = inttoptr i32 %4 to i32*, !insn.addr !231
  store i32 %arg2, i32* %5, align 4, !insn.addr !231
  %6 = add i32 %1, -36, !insn.addr !232
  %7 = inttoptr i32 %6 to i32*, !insn.addr !233
  %8 = call i32 @"_ZNSt10unique_ptrIiZ18test_cpp_smart_ptrvE3$_2ED2Ev"(i32* %7), !insn.addr !233
  %9 = call i32 @function_1aa4(), !insn.addr !234
  ret i32 %9, !insn.addr !234

; uselistorder directives
  uselistorder i32 %1, { 2, 1, 0 }
  uselistorder i32 ()* @function_1aa4, { 1, 0 }
  uselistorder i32 (i32*)* @"_ZNSt10unique_ptrIiZ18test_cpp_smart_ptrvE3$_2ED2Ev", { 1, 0 }
}

define i32 @function_1aa4() local_unnamed_addr {
dec_label_pc_1aa4:
  %0 = alloca i32
  %1 = load i32, i32* %0
  %2 = add i32 %1, -24, !insn.addr !235
  %3 = inttoptr i32 %2 to i32*, !insn.addr !236
  %4 = call i32 @_ZNSt10unique_ptrIA_iSt14default_deleteIS0_EED2Ev(i32* %3), !insn.addr !236
  %5 = call i32 @function_1ab0(), !insn.addr !237
  ret i32 %5, !insn.addr !237

; uselistorder directives
  uselistorder i32 ()* @function_1ab0, { 1, 0 }
  uselistorder i32 (i32*)* @_ZNSt10unique_ptrIA_iSt14default_deleteIS0_EED2Ev, { 1, 0 }
}

define i32 @function_1ab0() local_unnamed_addr {
dec_label_pc_1ab0:
  %0 = alloca i32
  %1 = load i32, i32* %0
  %2 = add i32 %1, -16, !insn.addr !238
  %3 = inttoptr i32 %2 to i32*, !insn.addr !239
  %4 = call i32 @_ZNSt10unique_ptrIiSt14default_deleteIiEED2Ev(i32* %3), !insn.addr !239
  %5 = call i32 @function_1abc(), !insn.addr !240
  ret i32 %5, !insn.addr !240

; uselistorder directives
  uselistorder i32 ()* @function_1abc, { 1, 0 }
}

define i32 @function_1abc() local_unnamed_addr {
dec_label_pc_1abc:
  %0 = alloca i32
  %1 = load i32, i32* %0
  %2 = add i32 %1, -4, !insn.addr !241
  %3 = inttoptr i32 %2 to i32*, !insn.addr !242
  %4 = call i32 @_ZNSt10unique_ptrIiSt14default_deleteIiEED2Ev(i32* %3), !insn.addr !242
  %5 = call i32 @function_dc4(i32 %4), !insn.addr !243
  ret i32 %5, !insn.addr !243

; uselistorder directives
  uselistorder i32 (i32)* @function_dc4, { 5, 4, 3, 2, 1, 0 }
  uselistorder i32 (i32*)* @_ZNSt10unique_ptrIiSt14default_deleteIiEED2Ev, { 2, 3, 1, 0 }
}

define i32 @"_ZNSt10unique_ptrIiZ18test_cpp_smart_ptrvE3$_2EC2IS0_vEEPiRKS0_"(i32* %result, i32* %arg2, i32* %arg3) local_unnamed_addr {
dec_label_pc_1acc:
  %0 = ptrtoint i32* %result to i32
  %1 = bitcast i32* %arg3 to i32**, !insn.addr !244
  %2 = call i32 @"_ZNSt15__uniq_ptr_dataIiZ18test_cpp_smart_ptrvE3$_2Lb1ELb0EECI2St15__uniq_ptr_implIiS0_EIRKS0_EEPiOT_"(i32* %result, i32* %arg2, i32** %1), !insn.addr !244
  ret i32 %0, !insn.addr !245
}

define i32 @function_1b0c() local_unnamed_addr {
dec_label_pc_1b0c:
  %0 = call i32 @__clang_call_terminate(), !insn.addr !246
  ret i32 %0, !insn.addr !246
}

define i32 @"_ZNKSt10unique_ptrIiZ18test_cpp_smart_ptrvE3$_2EdeEv"(i32* %result) local_unnamed_addr {
dec_label_pc_1b10:
  %0 = call i32 @"_ZNKSt10unique_ptrIiZ18test_cpp_smart_ptrvE3$_2E3getEv"(i32* %result), !insn.addr !247
  ret i32 %0, !insn.addr !248
}

define i32 @"_ZNSt10unique_ptrIiZ18test_cpp_smart_ptrvE3$_2ED2Ev"(i32* %result) local_unnamed_addr {
dec_label_pc_1b44:
  %0 = call i32 @"_ZNSt15__uniq_ptr_implIiZ18test_cpp_smart_ptrvE3$_2E6_M_ptrEv"(i32* %result), !insn.addr !249
  %1 = inttoptr i32 %0 to i32*, !insn.addr !250
  %2 = load i32, i32* %1, align 4, !insn.addr !250
  %3 = icmp eq i32 %2, 0, !insn.addr !251
  br i1 %3, label %dec_label_pc_1bb4, label %dec_label_pc_1b88, !insn.addr !252

dec_label_pc_1b88:                                ; preds = %dec_label_pc_1b44
  %4 = inttoptr i32 %0 to i32***, !insn.addr !253
  %5 = call i32 @"_ZNSt10unique_ptrIiZ18test_cpp_smart_ptrvE3$_2E11get_deleterEv"(i32* %result), !insn.addr !254
  %6 = call i32* @_ZSt4moveIRPiEONSt16remove_referenceIT_E4typeEOS3_(i32*** %4), !insn.addr !255
  %7 = load i32, i32* %6, align 4, !insn.addr !256
  %8 = inttoptr i32 %5 to i32*, !insn.addr !257
  %9 = inttoptr i32 %7 to i32*, !insn.addr !257
  %10 = call i32 @"_ZZ18test_cpp_smart_ptrvENK3$_2clEPi"(i32* %8, i32* %9), !insn.addr !257
  br label %dec_label_pc_1bb4, !insn.addr !258

dec_label_pc_1bb4:                                ; preds = %dec_label_pc_1b88, %dec_label_pc_1b44
  %11 = ptrtoint i32* %result to i32
  store i32 0, i32* %1, align 4, !insn.addr !259
  ret i32 %11, !insn.addr !260

; uselistorder directives
  uselistorder i32 %0, { 1, 0 }
  uselistorder i32* %result, { 2, 0, 1 }
}

define i32 @function_1bd0() local_unnamed_addr {
dec_label_pc_1bd0:
  %0 = call i32 @__clang_call_terminate(), !insn.addr !261
  ret i32 %0, !insn.addr !261
}

define i32 @_Z13test_cpp_rttiv() local_unnamed_addr {
dec_label_pc_1bd4:
  %stack_var_-20.3.reg2mem = alloca i32, !insn.addr !262
  %stack_var_-20.2.reg2mem = alloca i32, !insn.addr !262
  %0 = call i32 @"$a"(i32 4), !insn.addr !263
  %1 = inttoptr i32 %0 to i32*, !insn.addr !264
  store i32 0, i32* %1, align 4, !insn.addr !264
  %2 = call i32 @_ZN12RTTIDerivedAC2Ev(i32* %1), !insn.addr !265
  %3 = call i32 @"$a"(i32 4), !insn.addr !266
  %4 = inttoptr i32 %3 to i32*, !insn.addr !267
  store i32 0, i32* %4, align 4, !insn.addr !267
  %5 = call i32 @_ZN12RTTIDerivedBC2Ev(i32* %4), !insn.addr !268
  %6 = icmp eq i32 %0, 0, !insn.addr !269
  br i1 %6, label %dec_label_pc_1c44, label %dec_label_pc_1c48, !insn.addr !270

dec_label_pc_1c44:                                ; preds = %dec_label_pc_1bd4
  %7 = call i32 @function_db8(i32 0), !insn.addr !271
  br label %dec_label_pc_1c48, !insn.addr !271

dec_label_pc_1c48:                                ; preds = %dec_label_pc_1bd4, %dec_label_pc_1c44
  %8 = load i32, i32* %1, align 4, !insn.addr !272
  %9 = add i32 %8, -4, !insn.addr !273
  %10 = inttoptr i32 %9 to i32*, !insn.addr !273
  %11 = load i32, i32* %10, align 4, !insn.addr !273
  %12 = inttoptr i32 %11 to i32*, !insn.addr !274
  %13 = call i32 @_ZNKSt9type_infoeqERKS_(i32* %12, i32* nonnull @global_var_14c28), !insn.addr !274
  %14 = icmp eq i32 %3, 0, !insn.addr !275
  br i1 %14, label %dec_label_pc_1c90, label %dec_label_pc_1c94, !insn.addr !276

dec_label_pc_1c90:                                ; preds = %dec_label_pc_1c48
  %15 = call i32 @function_db8(i32 0), !insn.addr !277
  br label %dec_label_pc_1c94, !insn.addr !277

dec_label_pc_1c94:                                ; preds = %dec_label_pc_1c48, %dec_label_pc_1c90
  %16 = icmp eq i32 %13, 0, !insn.addr !278
  %spec.select = select i1 %16, i32 0, i32 10
  %17 = load i32, i32* %4, align 4, !insn.addr !279
  %18 = add i32 %17, -4, !insn.addr !280
  %19 = inttoptr i32 %18 to i32*, !insn.addr !280
  %20 = load i32, i32* %19, align 4, !insn.addr !280
  %21 = inttoptr i32 %20 to i32*, !insn.addr !281
  %22 = call i32 @_ZNKSt9type_infoeqERKS_(i32* %21, i32* nonnull @global_var_14c34), !insn.addr !281
  %23 = icmp eq i32 %22, 0, !insn.addr !282
  %24 = or i32 %spec.select, 20
  %spec.select2 = select i1 %23, i32 %spec.select, i32 %24
  store i32 %spec.select2, i32* %stack_var_-20.2.reg2mem, !insn.addr !283
  br i1 %6, label %dec_label_pc_1d40, label %dec_label_pc_1d0c, !insn.addr !283

dec_label_pc_1d0c:                                ; preds = %dec_label_pc_1c94
  %25 = call i32 @function_dd0(i32 %0, i32* nonnull @global_var_14c20, i32* nonnull @global_var_14c28, i32 0, i32 %0), !insn.addr !284
  %26 = icmp eq i32 %25, 0, !insn.addr !285
  store i32 %spec.select2, i32* %stack_var_-20.2.reg2mem, !insn.addr !286
  br i1 %26, label %dec_label_pc_1d40, label %dec_label_pc_1d24, !insn.addr !286

dec_label_pc_1d24:                                ; preds = %dec_label_pc_1d0c
  %27 = inttoptr i32 %25 to i32*, !insn.addr !287
  %28 = call i32 @_ZNK12RTTIDerivedA13derivedA_dataEv(i32* %27), !insn.addr !287
  %29 = add i32 %28, %spec.select2, !insn.addr !288
  store i32 %29, i32* %stack_var_-20.2.reg2mem, !insn.addr !289
  br label %dec_label_pc_1d40, !insn.addr !289

dec_label_pc_1d40:                                ; preds = %dec_label_pc_1c94, %dec_label_pc_1d24, %dec_label_pc_1d0c
  %stack_var_-20.2.reload = load i32, i32* %stack_var_-20.2.reg2mem
  store i32 %stack_var_-20.2.reload, i32* %stack_var_-20.3.reg2mem, !insn.addr !290
  br i1 %14, label %dec_label_pc_1db8, label %dec_label_pc_1d84, !insn.addr !290

dec_label_pc_1d84:                                ; preds = %dec_label_pc_1d40
  %30 = call i32 @function_dd0(i32 %3, i32* nonnull @global_var_14c20, i32* nonnull @global_var_14c34, i32 0, i32 %3), !insn.addr !291
  %31 = icmp eq i32 %30, 0, !insn.addr !292
  store i32 %stack_var_-20.2.reload, i32* %stack_var_-20.3.reg2mem, !insn.addr !293
  br i1 %31, label %dec_label_pc_1db8, label %dec_label_pc_1d9c, !insn.addr !293

dec_label_pc_1d9c:                                ; preds = %dec_label_pc_1d84
  %32 = inttoptr i32 %30 to i32*, !insn.addr !294
  %33 = call i32 @_ZNK12RTTIDerivedB13derivedB_dataEv(i32* %32), !insn.addr !294
  %34 = add i32 %33, %stack_var_-20.2.reload, !insn.addr !295
  store i32 %34, i32* %stack_var_-20.3.reg2mem, !insn.addr !296
  br label %dec_label_pc_1db8, !insn.addr !296

dec_label_pc_1db8:                                ; preds = %dec_label_pc_1d40, %dec_label_pc_1d9c, %dec_label_pc_1d84
  %stack_var_-20.3.reload = load i32, i32* %stack_var_-20.3.reg2mem
  br i1 %6, label %dec_label_pc_1dcc, label %dec_label_pc_1dd0, !insn.addr !297

dec_label_pc_1dcc:                                ; preds = %dec_label_pc_1db8
  %35 = call i32 @function_db8(i32 0), !insn.addr !298
  br label %dec_label_pc_1dd0, !insn.addr !298

dec_label_pc_1dd0:                                ; preds = %dec_label_pc_1db8, %dec_label_pc_1dcc
  %36 = load i32, i32* %1, align 4, !insn.addr !299
  %37 = add i32 %36, -4, !insn.addr !300
  %38 = inttoptr i32 %37 to i32*, !insn.addr !300
  %39 = load i32, i32* %38, align 4, !insn.addr !300
  %40 = inttoptr i32 %39 to i32*, !insn.addr !301
  %41 = call i32 @_ZNKSt9type_info4nameEv(i32* %40), !insn.addr !301
  %42 = call i32 @function_e00(i32 %41), !insn.addr !302
  %43 = add i32 %42, %stack_var_-20.3.reload, !insn.addr !303
  ret i32 %43, !insn.addr !304

; uselistorder directives
  uselistorder i32 %30, { 1, 0 }
  uselistorder i32 %stack_var_-20.2.reload, { 2, 1, 0 }
  uselistorder i32 %25, { 1, 0 }
  uselistorder i32 %spec.select2, { 2, 1, 0 }
  uselistorder i32* %stack_var_-20.2.reg2mem, { 0, 2, 3, 1 }
  uselistorder i32* %stack_var_-20.3.reg2mem, { 0, 2, 3, 1 }
  uselistorder i32 (i32, i32*, i32*, i32, i32)* @function_dd0, { 1, 0 }
  uselistorder i32 (i32*, i32*)* @_ZNKSt9type_infoeqERKS_, { 1, 0 }
  uselistorder i32 -4, { 3, 4, 5, 0, 2, 1 }
  uselistorder i32 (i32)* @function_db8, { 2, 1, 0 }
  uselistorder i32 (i32)* @"$a", { 3, 2, 1, 0 }
  uselistorder label %dec_label_pc_1dd0, { 1, 0 }
  uselistorder label %dec_label_pc_1db8, { 1, 2, 0 }
  uselistorder label %dec_label_pc_1d40, { 1, 2, 0 }
  uselistorder label %dec_label_pc_1c94, { 1, 0 }
  uselistorder label %dec_label_pc_1c48, { 1, 0 }
}

define i32 @_Z20test_cpp_oo_featuresv() local_unnamed_addr {
dec_label_pc_1e74:
  %0 = alloca i32
  %1 = load i32, i32* %0
  %2 = call i32 @function_d7c(i32* nonnull @global_var_4221, i32 %1), !insn.addr !305
  %3 = call i32 @_Z20test_cpp_member_funcv(), !insn.addr !306
  %4 = call i32 @function_d7c(i32* nonnull @global_var_4246, i32 %3), !insn.addr !307
  %5 = call i32 @_Z20test_cpp_constructorv(), !insn.addr !308
  %6 = call i32 @function_d7c(i32* nonnull @global_var_4264, i32 %5), !insn.addr !309
  %7 = call i32 @_Z21test_cpp_virtual_funcv(), !insn.addr !310
  %8 = call i32 @function_d7c(i32* nonnull @global_var_4280, i32 %7), !insn.addr !311
  %9 = call i32 @_Z29test_cpp_multiple_inheritancev(), !insn.addr !312
  %10 = call i32 @function_d7c(i32* nonnull @global_var_429c, i32 %9), !insn.addr !313
  %11 = call i32 @_Z28test_cpp_diamond_inheritancev(), !insn.addr !314
  %12 = call i32 @function_d7c(i32* nonnull @global_var_42b8, i32 %11), !insn.addr !315
  %13 = call i32 @_Z26test_cpp_operator_overloadv(), !insn.addr !316
  %14 = call i32 @function_d7c(i32* nonnull @global_var_42d5, i32 %13), !insn.addr !317
  %15 = call i32 @_Z22test_cpp_template_funcv(), !insn.addr !318
  %16 = call i32 @function_d7c(i32* nonnull @global_var_42f1, i32 %15), !insn.addr !319
  %17 = call i32 @_Z23test_cpp_template_classv(), !insn.addr !320
  %18 = call i32 @function_d7c(i32* nonnull @global_var_430d, i32 %17), !insn.addr !321
  %19 = call i32 @_Z15test_cpp_lambdav(), !insn.addr !322
  %20 = call i32 @function_d7c(i32* nonnull @global_var_4329, i32 %19), !insn.addr !323
  %21 = call i32 @_Z18test_cpp_exceptionv(), !insn.addr !324
  %22 = call i32 @function_d7c(i32* nonnull @global_var_4345, i32 %21), !insn.addr !325
  %23 = call i32 @_Z18test_cpp_smart_ptrv(), !insn.addr !326
  %24 = call i32 @function_d7c(i32* nonnull @global_var_4362, i32 %23), !insn.addr !327
  %25 = call i32 @_Z13test_cpp_rttiv(), !insn.addr !328
  %26 = call i32 @function_d7c(i32* nonnull @global_var_437f, i32 %25), !insn.addr !329
  ret i32 %26, !insn.addr !330

; uselistorder directives
  uselistorder i32 (i32*, i32)* @function_d7c, { 12, 11, 10, 9, 8, 7, 6, 5, 4, 3, 2, 1, 0 }
}

define i32 @main(i32 %argc, i8** %argv) local_unnamed_addr {
dec_label_pc_1fb4:
  %0 = call i32 @_Z20test_cpp_oo_featuresv(), !insn.addr !331
  ret i32 0, !insn.addr !332
}

define i32 @"_ZNSt15__uniq_ptr_dataIiZ18test_cpp_smart_ptrvE3$_2Lb1ELb0EECI2St15__uniq_ptr_implIiS0_EIRKS0_EEPiOT_"(i32* %result, i32* %arg2, i32** %arg3) local_unnamed_addr {
dec_label_pc_1fe0:
  %0 = ptrtoint i32* %result to i32
  %1 = call i32 @"_ZNSt15__uniq_ptr_implIiZ18test_cpp_smart_ptrvE3$_2EC2IRKS0_EEPiOT_"(i32* %result, i32* %arg2, i32** %arg3), !insn.addr !333
  ret i32 %0, !insn.addr !334
}

define i32 @"_ZNSt15__uniq_ptr_implIiZ18test_cpp_smart_ptrvE3$_2EC2IRKS0_EEPiOT_"(i32* %result, i32* %arg2, i32** %arg3) local_unnamed_addr {
dec_label_pc_201c:
  %0 = ptrtoint i32* %arg2 to i32
  %1 = ptrtoint i32* %result to i32
  %stack_var_-16 = alloca i32, align 4
  store i32 %0, i32* %stack_var_-16, align 4, !insn.addr !335
  %2 = bitcast i32** %arg3 to i32*, !insn.addr !336
  %3 = call i32** @"_ZSt7forwardIRKZ18test_cpp_smart_ptrvE3$_2EOT_RNSt16remove_referenceIS3_E4typeE"(i32* %2), !insn.addr !336
  %4 = bitcast i32* %stack_var_-16 to i32***, !insn.addr !337
  %5 = call i32 @"_ZNSt5tupleIJPiZ18test_cpp_smart_ptrvE3$_2EEC2IRS0_RKS1_Lb1EEEOT_OT0_"(i32* %result, i32*** nonnull %4, i32** %3), !insn.addr !337
  ret i32 %1, !insn.addr !338
}

define i32** @"_ZSt7forwardIRKZ18test_cpp_smart_ptrvE3$_2EOT_RNSt16remove_referenceIS3_E4typeE"(i32* %arg1) local_unnamed_addr {
dec_label_pc_2064:
  %0 = bitcast i32* %arg1 to i32**, !insn.addr !339
  ret i32** %0, !insn.addr !339
}

define i32 @"_ZNSt5tupleIJPiZ18test_cpp_smart_ptrvE3$_2EEC2IRS0_RKS1_Lb1EEEOT_OT0_"(i32* %result, i32*** %arg2, i32** %arg3) local_unnamed_addr {
dec_label_pc_2078:
  %0 = ptrtoint i32* %result to i32
  %1 = bitcast i32*** %arg2 to i32*, !insn.addr !340
  %2 = call i32*** @_ZSt7forwardIRPiEOT_RNSt16remove_referenceIS2_E4typeE(i32* %1), !insn.addr !340
  %3 = bitcast i32** %arg3 to i32*, !insn.addr !341
  %4 = call i32** @"_ZSt7forwardIRKZ18test_cpp_smart_ptrvE3$_2EOT_RNSt16remove_referenceIS3_E4typeE"(i32* %3), !insn.addr !341
  %5 = ptrtoint i32** %4 to i32, !insn.addr !341
  %6 = call i32 @"_ZNSt11_Tuple_implILj0EJPiZ18test_cpp_smart_ptrvE3$_2EEC2IRS0_JRKS1_EvEEOT_DpOT0_"(i32* %result, i32*** %2, i32 %5), !insn.addr !342
  ret i32 %0, !insn.addr !343
}

define i32 @function_20d0() local_unnamed_addr {
dec_label_pc_20d0:
  %0 = call i32 @__clang_call_terminate(), !insn.addr !344
  ret i32 %0, !insn.addr !344
}

define i32 @"_ZNSt11_Tuple_implILj0EJPiZ18test_cpp_smart_ptrvE3$_2EEC2IRS0_JRKS1_EvEEOT_DpOT0_"(i32* %result, i32*** %arg2, i32 %arg3) local_unnamed_addr {
dec_label_pc_20d4:
  %0 = ptrtoint i32* %result to i32
  %1 = inttoptr i32 %arg3 to i32*, !insn.addr !345
  %2 = call i32** @"_ZSt7forwardIRKZ18test_cpp_smart_ptrvE3$_2EOT_RNSt16remove_referenceIS3_E4typeE"(i32* %1), !insn.addr !345
  %3 = bitcast i32** %2 to i32*, !insn.addr !346
  %4 = call i32 @"_ZNSt11_Tuple_implILj1EJZ18test_cpp_smart_ptrvE3$_2EEC2ERKS0_"(i32* %result, i32* %3), !insn.addr !346
  %5 = bitcast i32*** %arg2 to i32*, !insn.addr !347
  %6 = call i32*** @_ZSt7forwardIRPiEOT_RNSt16remove_referenceIS2_E4typeE(i32* %5), !insn.addr !347
  %7 = call i32 @_ZNSt10_Head_baseILj0EPiLb0EEC2IRS0_EEOT_(i32* %result, i32*** %6), !insn.addr !348
  ret i32 %0, !insn.addr !349

; uselistorder directives
  uselistorder i32** (i32*)* @"_ZSt7forwardIRKZ18test_cpp_smart_ptrvE3$_2EOT_RNSt16remove_referenceIS3_E4typeE", { 2, 1, 0 }
}

define i32 @"_ZNSt11_Tuple_implILj1EJZ18test_cpp_smart_ptrvE3$_2EEC2ERKS0_"(i32* %result, i32* %arg2) local_unnamed_addr {
dec_label_pc_212c:
  %0 = ptrtoint i32* %result to i32
  %1 = call i32 @"_ZNSt10_Head_baseILj1EZ18test_cpp_smart_ptrvE3$_2Lb1EEC2ERKS0_"(i32* %result, i32* %arg2), !insn.addr !350
  ret i32 %0, !insn.addr !351
}

define i32 @"_ZNSt10_Head_baseILj1EZ18test_cpp_smart_ptrvE3$_2Lb1EEC2ERKS0_"(i32* %result, i32* %arg2) local_unnamed_addr {
dec_label_pc_2160:
  %0 = ptrtoint i32* %result to i32
  ret i32 %0, !insn.addr !352
}

define i32 @"_ZNSt15__uniq_ptr_implIiZ18test_cpp_smart_ptrvE3$_2E6_M_ptrEv"(i32* %result) local_unnamed_addr {
dec_label_pc_2178:
  %0 = call i32* @"_ZSt3getILj0EJPiZ18test_cpp_smart_ptrvE3$_2EERNSt13tuple_elementIXT_ESt5tupleIJDpT0_EEE4typeERS6_"(i32* %result), !insn.addr !353
  %1 = ptrtoint i32* %0 to i32, !insn.addr !353
  ret i32 %1, !insn.addr !354
}

define i32 @"_ZNSt10unique_ptrIiZ18test_cpp_smart_ptrvE3$_2E11get_deleterEv"(i32* %result) local_unnamed_addr {
dec_label_pc_219c:
  %0 = call i32 @"_ZNSt15__uniq_ptr_implIiZ18test_cpp_smart_ptrvE3$_2E10_M_deleterEv"(i32* %result), !insn.addr !355
  ret i32 %0, !insn.addr !356
}

define i32 @function_21cc() local_unnamed_addr {
dec_label_pc_21cc:
  %0 = call i32 @__clang_call_terminate(), !insn.addr !357
  ret i32 %0, !insn.addr !357
}

define i32 @"_ZZ18test_cpp_smart_ptrvENK3$_2clEPi"(i32* %result, i32* %arg2) local_unnamed_addr {
dec_label_pc_21d0:
  %r0.0.reg2mem = alloca i32, !insn.addr !358
  %0 = ptrtoint i32* %arg2 to i32
  store i32 -1, i32* %arg2, align 4, !insn.addr !359
  %1 = icmp eq i32* %arg2, null, !insn.addr !360
  store i32 %0, i32* %r0.0.reg2mem, !insn.addr !361
  br i1 %1, label %dec_label_pc_2210, label %dec_label_pc_2204, !insn.addr !361

dec_label_pc_2204:                                ; preds = %dec_label_pc_21d0
  %2 = call i32 @function_dac(i32 %0, i32 %0), !insn.addr !362
  store i32 %2, i32* %r0.0.reg2mem, !insn.addr !363
  br label %dec_label_pc_2210, !insn.addr !363

dec_label_pc_2210:                                ; preds = %dec_label_pc_2204, %dec_label_pc_21d0
  %r0.0.reload = load i32, i32* %r0.0.reg2mem
  ret i32 %r0.0.reload, !insn.addr !364

; uselistorder directives
  uselistorder i32 %0, { 1, 2, 0 }
}

define i32* @"_ZSt3getILj0EJPiZ18test_cpp_smart_ptrvE3$_2EERNSt13tuple_elementIXT_ESt5tupleIJDpT0_EEE4typeERS6_"(i32* %arg1) local_unnamed_addr {
dec_label_pc_221c:
  %0 = call i32** @"_ZSt12__get_helperILj0EPiJZ18test_cpp_smart_ptrvE3$_2EERT0_RSt11_Tuple_implIXT_EJS2_DpT1_EE"(i32* %arg1), !insn.addr !365
  %1 = bitcast i32** %0 to i32*, !insn.addr !366
  ret i32* %1, !insn.addr !366
}

define i32** @"_ZSt12__get_helperILj0EPiJZ18test_cpp_smart_ptrvE3$_2EERT0_RSt11_Tuple_implIXT_EJS2_DpT1_EE"(i32* %arg1) local_unnamed_addr {
dec_label_pc_2240:
  %0 = call i32 @"_ZNSt11_Tuple_implILj0EJPiZ18test_cpp_smart_ptrvE3$_2EE7_M_headERS2_"(i32* %arg1), !insn.addr !367
  %1 = inttoptr i32 %0 to i32**, !insn.addr !368
  ret i32** %1, !insn.addr !368
}

define i32 @"_ZNSt11_Tuple_implILj0EJPiZ18test_cpp_smart_ptrvE3$_2EE7_M_headERS2_"(i32* %arg1) local_unnamed_addr {
dec_label_pc_2264:
  %0 = call i32 @_ZNSt10_Head_baseILj0EPiLb0EE7_M_headERS1_(i32* %arg1), !insn.addr !369
  ret i32 %0, !insn.addr !370
}

define i32 @"_ZNSt15__uniq_ptr_implIiZ18test_cpp_smart_ptrvE3$_2E10_M_deleterEv"(i32* %result) local_unnamed_addr {
dec_label_pc_2288:
  %0 = call i32* @"_ZSt3getILj1EJPiZ18test_cpp_smart_ptrvE3$_2EERNSt13tuple_elementIXT_ESt5tupleIJDpT0_EEE4typeERS6_"(i32* %result), !insn.addr !371
  %1 = ptrtoint i32* %0 to i32, !insn.addr !371
  ret i32 %1, !insn.addr !372
}

define i32* @"_ZSt3getILj1EJPiZ18test_cpp_smart_ptrvE3$_2EERNSt13tuple_elementIXT_ESt5tupleIJDpT0_EEE4typeERS6_"(i32* %arg1) local_unnamed_addr {
dec_label_pc_22ac:
  %0 = call i32* @"_ZSt12__get_helperILj1EZ18test_cpp_smart_ptrvE3$_2JEERT0_RSt11_Tuple_implIXT_EJS1_DpT1_EE"(i32* %arg1), !insn.addr !373
  ret i32* %0, !insn.addr !374
}

define i32* @"_ZSt12__get_helperILj1EZ18test_cpp_smart_ptrvE3$_2JEERT0_RSt11_Tuple_implIXT_EJS1_DpT1_EE"(i32* %arg1) local_unnamed_addr {
dec_label_pc_22d0:
  %0 = call i32 @"_ZNSt11_Tuple_implILj1EJZ18test_cpp_smart_ptrvE3$_2EE7_M_headERS1_"(i32* %arg1), !insn.addr !375
  %1 = inttoptr i32 %0 to i32*, !insn.addr !376
  ret i32* %1, !insn.addr !376
}

define i32 @"_ZNSt11_Tuple_implILj1EJZ18test_cpp_smart_ptrvE3$_2EE7_M_headERS1_"(i32* %arg1) local_unnamed_addr {
dec_label_pc_22f4:
  %0 = call i32 @"_ZNSt10_Head_baseILj1EZ18test_cpp_smart_ptrvE3$_2Lb1EE7_M_headERS1_"(i32* %arg1), !insn.addr !377
  ret i32 %0, !insn.addr !378
}

define i32 @"_ZNSt10_Head_baseILj1EZ18test_cpp_smart_ptrvE3$_2Lb1EE7_M_headERS1_"(i32* %arg1) local_unnamed_addr {
dec_label_pc_2318:
  %0 = ptrtoint i32* %arg1 to i32
  ret i32 %0, !insn.addr !379
}

define i32 @"_ZNKSt10unique_ptrIiZ18test_cpp_smart_ptrvE3$_2E3getEv"(i32* %result) local_unnamed_addr {
dec_label_pc_232c:
  %0 = call i32 @"_ZNKSt15__uniq_ptr_implIiZ18test_cpp_smart_ptrvE3$_2E6_M_ptrEv"(i32* %result), !insn.addr !380
  ret i32 %0, !insn.addr !381
}

define i32 @function_235c() local_unnamed_addr {
dec_label_pc_235c:
  %0 = call i32 @__clang_call_terminate(), !insn.addr !382
  ret i32 %0, !insn.addr !382
}

define i32 @"_ZNKSt15__uniq_ptr_implIiZ18test_cpp_smart_ptrvE3$_2E6_M_ptrEv"(i32* %result) local_unnamed_addr {
dec_label_pc_2360:
  %0 = call i32* @"_ZSt3getILj0EJPiZ18test_cpp_smart_ptrvE3$_2EERKNSt13tuple_elementIXT_ESt5tupleIJDpT0_EEE4typeERKS6_"(i32* %result), !insn.addr !383
  %1 = load i32, i32* %0, align 4, !insn.addr !384
  ret i32 %1, !insn.addr !385
}

define i32* @"_ZSt3getILj0EJPiZ18test_cpp_smart_ptrvE3$_2EERKNSt13tuple_elementIXT_ESt5tupleIJDpT0_EEE4typeERKS6_"(i32* %arg1) local_unnamed_addr {
dec_label_pc_2388:
  %0 = call i32** @"_ZSt12__get_helperILj0EPiJZ18test_cpp_smart_ptrvE3$_2EERKT0_RKSt11_Tuple_implIXT_EJS2_DpT1_EE"(i32* %arg1), !insn.addr !386
  %1 = bitcast i32** %0 to i32*, !insn.addr !387
  ret i32* %1, !insn.addr !387
}

define i32** @"_ZSt12__get_helperILj0EPiJZ18test_cpp_smart_ptrvE3$_2EERKT0_RKSt11_Tuple_implIXT_EJS2_DpT1_EE"(i32* %arg1) local_unnamed_addr {
dec_label_pc_23ac:
  %0 = call i32 @"_ZNSt11_Tuple_implILj0EJPiZ18test_cpp_smart_ptrvE3$_2EE7_M_headERKS2_"(i32* %arg1), !insn.addr !388
  %1 = inttoptr i32 %0 to i32**, !insn.addr !389
  ret i32** %1, !insn.addr !389
}

define i32 @"_ZNSt11_Tuple_implILj0EJPiZ18test_cpp_smart_ptrvE3$_2EE7_M_headERKS2_"(i32* %arg1) local_unnamed_addr {
dec_label_pc_23d0:
  %0 = call i32 @_ZNSt10_Head_baseILj0EPiLb0EE7_M_headERKS1_(i32* %arg1), !insn.addr !390
  ret i32 %0, !insn.addr !391
}

define i32 @_ZN11SimpleClassC2EiPKc(i32* %result, i32 %arg2, i8* %arg3) local_unnamed_addr {
dec_label_pc_23f4:
  %0 = ptrtoint i8* %arg3 to i32
  %1 = ptrtoint i32* %result to i32
  store i32 %arg2, i32* %result, align 4, !insn.addr !392
  %2 = add i32 %1, 4, !insn.addr !393
  %3 = call i32 @function_e60(i32 %2, i32 %0, i32 31), !insn.addr !394
  %4 = add i32 %1, 35, !insn.addr !395
  %5 = inttoptr i32 %4 to i8*, !insn.addr !395
  store i8 0, i8* %5, align 1, !insn.addr !395
  ret i32 %1, !insn.addr !396
}

define i32 @_ZN11SimpleClass8setValueEi(i32* %result, i32 %arg2) local_unnamed_addr {
dec_label_pc_2444:
  store i32 %arg2, i32* %result, align 4, !insn.addr !397
  ret i32 %arg2, !insn.addr !398
}

define i32 @_ZNK11SimpleClass8getValueEv(i32* %result) local_unnamed_addr {
dec_label_pc_2464:
  %0 = ptrtoint i32* %result to i32
  ret i32 %0, !insn.addr !399
}

define i32 @_ZNK11SimpleClass7computeEi(i32* %result, i32 %arg2) local_unnamed_addr {
dec_label_pc_247c:
  %0 = ptrtoint i32* %result to i32
  %1 = add i32 %0, 4, !insn.addr !400
  %2 = call i32 @function_e00(i32 %1), !insn.addr !401
  %3 = mul i32 %0, %arg2, !insn.addr !402
  %4 = add i32 %2, %3, !insn.addr !402
  ret i32 %4, !insn.addr !403
}

define i32 @_ZN11SimpleClass10getClassIDEv() local_unnamed_addr {
dec_label_pc_24c4:
  ret i32 or (i32 ptrtoint (i32* @global_var_234 to i32), i32 4096), !insn.addr !404
}

define i32 @_ZN14LifecycleClassC2Ej(i32* %result, i32 %arg2) local_unnamed_addr {
dec_label_pc_24d0:
  %storemerge3.reg2mem = alloca i32, !insn.addr !405
  %0 = ptrtoint i32* %result to i32
  %1 = add i32 %0, 4, !insn.addr !406
  %2 = inttoptr i32 %1 to i32*, !insn.addr !406
  store i32 %arg2, i32* %2, align 4, !insn.addr !406
  %3 = and i32 %arg2, -1073741824, !insn.addr !407
  %4 = icmp ult i32 %arg2, 1073741824
  %spec.select = select i1 %4, i32 %3, i32 1
  %5 = mul i32 %arg2, 4, !insn.addr !408
  %6 = icmp eq i32 %spec.select, 0, !insn.addr !409
  %storemerge2 = select i1 %6, i32 %5, i32 -1
  %7 = call i32 @function_d94(i32 %storemerge2, i32 %spec.select), !insn.addr !410
  store i32 %7, i32* %result, align 4, !insn.addr !411
  %8 = icmp eq i32 %arg2, 0, !insn.addr !412
  store i32 0, i32* %storemerge3.reg2mem, !insn.addr !413
  br i1 %8, label %dec_label_pc_256c, label %dec_label_pc_2540, !insn.addr !413

dec_label_pc_2540:                                ; preds = %dec_label_pc_24d0, %dec_label_pc_2540
  %storemerge3.reload = load i32, i32* %storemerge3.reg2mem
  %9 = mul i32 %storemerge3.reload, 10, !insn.addr !414
  %10 = mul i32 %storemerge3.reload, 14, !insn.addr !415
  %11 = inttoptr i32 %10 to i32*, !insn.addr !415
  store i32 %9, i32* %11, align 4, !insn.addr !415
  %12 = add nuw i32 %storemerge3.reload, 1, !insn.addr !416
  %13 = icmp ult i32 %12, %arg2, !insn.addr !412
  store i32 %12, i32* %storemerge3.reg2mem, !insn.addr !413
  br i1 %13, label %dec_label_pc_2540, label %dec_label_pc_256c, !insn.addr !413

dec_label_pc_256c:                                ; preds = %dec_label_pc_2540, %dec_label_pc_24d0
  %14 = load i32, i32* @global_var_150a8, align 4, !insn.addr !417
  %15 = add i32 %14, 1, !insn.addr !418
  store i32 %15, i32* @global_var_150a8, align 4, !insn.addr !419
  ret i32 %0, !insn.addr !420

; uselistorder directives
  uselistorder i32 %storemerge3.reload, { 0, 2, 1 }
  uselistorder i32* %storemerge3.reg2mem, { 2, 0, 1 }
  uselistorder i32 %arg2, { 2, 1, 0, 4, 3, 5 }
  uselistorder label %dec_label_pc_2540, { 1, 0 }
}

define i32 @_ZNK14LifecycleClass7getDataEj(i32* %result, i32 %arg2) local_unnamed_addr {
dec_label_pc_259c:
  %storemerge.reg2mem = alloca i32, !insn.addr !421
  %0 = ptrtoint i32* %result to i32
  %1 = add i32 %0, 4, !insn.addr !422
  %2 = inttoptr i32 %1 to i32*, !insn.addr !422
  %3 = load i32, i32* %2, align 4, !insn.addr !422
  %4 = icmp ugt i32 %3, %arg2, !insn.addr !423
  store i32 -1, i32* %storemerge.reg2mem, !insn.addr !424
  br i1 %4, label %dec_label_pc_25c4, label %dec_label_pc_25e8, !insn.addr !424

dec_label_pc_25c4:                                ; preds = %dec_label_pc_259c
  %5 = mul i32 %arg2, 4, !insn.addr !425
  %6 = add i32 %5, %0, !insn.addr !425
  %7 = inttoptr i32 %6 to i32*, !insn.addr !425
  %8 = load i32, i32* %7, align 4, !insn.addr !425
  store i32 %8, i32* %storemerge.reg2mem, !insn.addr !426
  br label %dec_label_pc_25e8, !insn.addr !426

dec_label_pc_25e8:                                ; preds = %dec_label_pc_259c, %dec_label_pc_25c4
  %storemerge.reload = load i32, i32* %storemerge.reg2mem
  ret i32 %storemerge.reload, !insn.addr !427

; uselistorder directives
  uselistorder i32* %storemerge.reg2mem, { 0, 2, 1 }
  uselistorder label %dec_label_pc_25e8, { 1, 0 }
}

define i32 @_ZN14LifecycleClass16getInstanceCountEv() local_unnamed_addr {
dec_label_pc_25f4:
  %0 = load i32, i32* @global_var_150a8, align 4, !insn.addr !428
  ret i32 %0, !insn.addr !429
}

define i32 @_ZN14LifecycleClassD2Ev(i32* %result) local_unnamed_addr {
dec_label_pc_2604:
  %0 = ptrtoint i32* %result to i32
  %1 = icmp eq i32* %result, null, !insn.addr !430
  br i1 %1, label %dec_label_pc_263c, label %dec_label_pc_2630, !insn.addr !431

dec_label_pc_2630:                                ; preds = %dec_label_pc_2604
  %2 = call i32 @function_de8(i32 %0), !insn.addr !432
  br label %dec_label_pc_263c, !insn.addr !433

dec_label_pc_263c:                                ; preds = %dec_label_pc_2630, %dec_label_pc_2604
  %3 = load i32, i32* @global_var_150a8, align 4, !insn.addr !434
  %4 = add i32 %3, -1, !insn.addr !435
  store i32 %4, i32* @global_var_150a8, align 4, !insn.addr !436
  ret i32 %0, !insn.addr !437

; uselistorder directives
  uselistorder i32 -1, { 2, 0, 1, 3 }
  uselistorder i32* @global_var_150a8, { 0, 2, 3, 1, 4 }
}

define i32 @_ZN4BaseC2Ev(i32* %result) local_unnamed_addr {
dec_label_pc_266c:
  %0 = ptrtoint i32* %result to i32
  store i32 ptrtoint (i32* @global_var_14c48 to i32), i32* %result, align 4, !insn.addr !438
  ret i32 %0, !insn.addr !439
}

define i32 @_ZN7DerivedC2Ei(i32* %result, i32 %arg2) local_unnamed_addr {
dec_label_pc_2694:
  %0 = ptrtoint i32* %result to i32
  %1 = call i32 @_ZN4BaseC2Ev(i32* %result), !insn.addr !440
  store i32 ptrtoint (i32* @global_var_14c68 to i32), i32* %result, align 4, !insn.addr !441
  %2 = add i32 %0, 4, !insn.addr !442
  %3 = inttoptr i32 %2 to i32*, !insn.addr !442
  store i32 %arg2, i32* %3, align 4, !insn.addr !442
  ret i32 %0, !insn.addr !443

; uselistorder directives
  uselistorder i32 %0, { 1, 0 }
  uselistorder i32 (i32*)* @_ZN4BaseC2Ev, { 1, 0 }
}

define i32 @_ZN4Base12virtual_funcEi(i32* %result, i32 %arg2) local_unnamed_addr {
dec_label_pc_26e0:
  %0 = add i32 %arg2, 1, !insn.addr !444
  ret i32 %0, !insn.addr !445
}

define i32 @_ZN7Derived12virtual_funcEi(i32* %result, i32 %arg2) local_unnamed_addr {
dec_label_pc_26fc:
  %0 = ptrtoint i32* %result to i32
  %1 = add i32 %0, 4, !insn.addr !446
  %2 = inttoptr i32 %1 to i32*, !insn.addr !446
  %3 = load i32, i32* %2, align 4, !insn.addr !446
  %4 = mul i32 %3, %arg2, !insn.addr !447
  ret i32 %4, !insn.addr !448
}

define i32 @_ZN7DerivedD2Ev(i32* %result) local_unnamed_addr {
dec_label_pc_2720:
  %0 = ptrtoint i32* %result to i32
  %1 = call i32 @_ZN4BaseD2Ev(i32* %result), !insn.addr !449
  ret i32 %0, !insn.addr !450
}

define i32 @_ZN4BaseD2Ev(i32* %result) local_unnamed_addr {
dec_label_pc_274c:
  %0 = ptrtoint i32* %result to i32
  ret i32 %0, !insn.addr !451
}

define i32 @_ZN12MultiDerivedC2Ev(i32* %result) local_unnamed_addr {
dec_label_pc_2760:
  %0 = ptrtoint i32* %result to i32
  %1 = call i32 @_ZN5BaseAC2Ev(i32* %result), !insn.addr !452
  %2 = add i32 %0, 8, !insn.addr !453
  %3 = inttoptr i32 %2 to i32*, !insn.addr !454
  %4 = call i32 @_ZN5BaseBC2Ev(i32* %3), !insn.addr !454
  store i32 ptrtoint (i32* @global_var_14c8c to i32), i32* %result, align 4, !insn.addr !455
  store i32 ptrtoint (i32* @global_var_14ca4 to i32), i32* %3, align 4, !insn.addr !456
  ret i32 %0, !insn.addr !457
}

define i32 @_ZN12MultiDerivedD2Ev(i32* %result) local_unnamed_addr {
dec_label_pc_27b4:
  %0 = ptrtoint i32* %result to i32
  %1 = add i32 %0, 8, !insn.addr !458
  %2 = inttoptr i32 %1 to i32*, !insn.addr !459
  %3 = call i32 @_ZN5BaseBD2Ev(i32* %2), !insn.addr !459
  %4 = call i32 @_ZN5BaseAD2Ev(i32* %result), !insn.addr !460
  ret i32 %0, !insn.addr !461
}

define i32 @_ZN14DiamondDerivedC1Ev(i32* %result) local_unnamed_addr {
dec_label_pc_27ec:
  %0 = ptrtoint i32* %result to i32
  %1 = add i32 %0, 16, !insn.addr !462
  %2 = inttoptr i32 %1 to i32*, !insn.addr !463
  %3 = call i32 @_ZN11VirtualBaseC2Ev(i32* %2), !insn.addr !463
  %4 = call i32 @_ZN7MiddleAC2Ev(i32* %result, i32* inttoptr (i32 85336 to i32*)), !insn.addr !464
  %5 = add i32 %0, 8, !insn.addr !465
  %6 = inttoptr i32 %5 to i32*, !insn.addr !466
  %7 = call i32 @_ZN7MiddleBC2Ev(i32* %6, i32* inttoptr (i32 add (i32 ptrtoint (i32* @global_var_14d54 to i32), i32 12) to i32*)), !insn.addr !466
  store i32 ptrtoint (i32* @global_var_14d14 to i32), i32* %result, align 4, !insn.addr !467
  store i32 ptrtoint (i32* @global_var_14d48 to i32), i32* %2, align 4, !insn.addr !468
  store i32 ptrtoint (i32* @global_var_14d2c to i32), i32* %6, align 4, !insn.addr !469
  ret i32 %0, !insn.addr !470
}

define i32 @_ZN14DiamondDerivedD1Ev(i32* %result) local_unnamed_addr {
dec_label_pc_2870:
  %0 = ptrtoint i32* %result to i32
  %1 = call i32 @_ZN14DiamondDerivedD2Ev(i32* %result, i32* nonnull @global_var_14d54), !insn.addr !471
  %2 = add i32 %0, 16, !insn.addr !472
  %3 = inttoptr i32 %2 to i32*, !insn.addr !473
  %4 = call i32 @_ZN11VirtualBaseD2Ev(i32* %3), !insn.addr !473
  ret i32 %0, !insn.addr !474

; uselistorder directives
  uselistorder i32 16, { 2, 3, 1, 0 }
}

define i32 @_ZN5PointC2Eii(i32* %result, i32 %arg2, i32 %arg3) local_unnamed_addr {
dec_label_pc_28b4:
  %0 = ptrtoint i32* %result to i32
  store i32 %arg2, i32* %result, align 4, !insn.addr !475
  %1 = add i32 %0, 4, !insn.addr !476
  %2 = inttoptr i32 %1 to i32*, !insn.addr !476
  store i32 %arg3, i32* %2, align 4, !insn.addr !476
  ret i32 %0, !insn.addr !477

; uselistorder directives
  uselistorder i32 %0, { 1, 0 }
}

define i32 @_ZNK5PointplERKS_(i32* %this, i32* %result, i32* %arg3) local_unnamed_addr {
dec_label_pc_28e0:
  %0 = ptrtoint i32* %arg3 to i32
  %1 = ptrtoint i32* %result to i32
  %2 = add i32 %1, 4, !insn.addr !478
  %3 = inttoptr i32 %2 to i32*, !insn.addr !478
  %4 = load i32, i32* %3, align 4, !insn.addr !478
  %5 = add i32 %0, 4, !insn.addr !479
  %6 = inttoptr i32 %5 to i32*, !insn.addr !479
  %7 = load i32, i32* %6, align 4, !insn.addr !479
  %8 = add i32 %4, %1, !insn.addr !480
  %9 = add i32 %7, %4, !insn.addr !481
  %10 = call i32 @_ZN5PointC2Eii(i32* %this, i32 %8, i32 %9), !insn.addr !482
  ret i32 %10, !insn.addr !483

; uselistorder directives
  uselistorder i32 (i32*, i32, i32)* @_ZN5PointC2Eii, { 2, 1, 0 }
}

define i32 @_ZNK5PointeqERKS_(i32* %result, i32* %arg2) local_unnamed_addr {
dec_label_pc_2924:
  %0 = ptrtoint i32* %arg2 to i32
  %1 = ptrtoint i32* %result to i32
  %2 = add i32 %1, 4, !insn.addr !484
  %3 = inttoptr i32 %2 to i32*, !insn.addr !484
  %4 = load i32, i32* %3, align 4, !insn.addr !484
  %5 = add i32 %0, 4, !insn.addr !485
  %6 = inttoptr i32 %5 to i32*, !insn.addr !485
  %7 = load i32, i32* %6, align 4, !insn.addr !485
  %8 = icmp ne i32 %4, %7, !insn.addr !486
  %9 = icmp ne i1 %8, true, !insn.addr !486
  %10 = zext i1 %9 to i32, !insn.addr !487
  ret i32 %10, !insn.addr !488
}

define i32 @_ZN5PointppEv(i32* %result) local_unnamed_addr {
dec_label_pc_298c:
  %0 = ptrtoint i32* %result to i32
  %1 = add i32 %0, 1, !insn.addr !489
  store i32 %1, i32* %result, align 4, !insn.addr !490
  %2 = add i32 %0, 4, !insn.addr !491
  %3 = inttoptr i32 %2 to i32*, !insn.addr !491
  %4 = load i32, i32* %3, align 4, !insn.addr !491
  %5 = add i32 %4, 1, !insn.addr !492
  store i32 %5, i32* %3, align 4, !insn.addr !493
  ret i32 %0, !insn.addr !494
}

define i32 @_Z12template_maxIiET_S0_S0_(i32 %arg1, i32 %arg2) local_unnamed_addr {
dec_label_pc_29b8:
  %0 = icmp sgt i32 %arg1, %arg2, !insn.addr !495
  %storemerge = select i1 %0, i32 %arg1, i32 %arg2
  ret i32 %storemerge, !insn.addr !496
}

define double @_Z12template_maxIdET_S0_S0_(i32* %this, i32* %result, double %arg3, double %arg4) local_unnamed_addr {
dec_label_pc_29fc:
  %0 = alloca i32
  %1 = load i32, i32* %0
  %2 = load i32, i32* %0
  %3 = fptrunc double %arg4 to float
  %4 = bitcast float %3 to i32
  %5 = fptrunc double %arg3 to float
  %6 = bitcast float %5 to i32
  %7 = ptrtoint i32* %result to i32
  %8 = ptrtoint i32* %this to i32
  %9 = call i32 @function_e54(i32 %8, i32 %7, i32 %6, i32 %4, i32 %1, i32 %2), !insn.addr !497
  %10 = icmp eq i32 %9, 0, !insn.addr !498
  %storemerge = select i1 %10, i32 %6, i32 %8
  %11 = sext i32 %storemerge to i64, !insn.addr !499
  %12 = bitcast i64 %11 to double, !insn.addr !499
  ret double %12, !insn.addr !499

; uselistorder directives
  uselistorder i32* %0, { 1, 0 }
}

define void @_Z13template_swapIiEvRT_S1_(i32* %arg1, i32* %arg2) local_unnamed_addr {
dec_label_pc_2a74:
  %0 = ptrtoint i32* %arg2 to i32
  %1 = ptrtoint i32* %arg1 to i32
  store i32 %0, i32* %arg1, align 4, !insn.addr !500
  store i32 %1, i32* %arg2, align 4, !insn.addr !501
  ret void, !insn.addr !502
}

define i32 @_ZN9ContainerIiEC1Ev(i32* %result) local_unnamed_addr {
dec_label_pc_2ab0:
  %0 = ptrtoint i32* %result to i32
  %1 = add i32 %0, 40, !insn.addr !503
  %2 = inttoptr i32 %1 to i32*, !insn.addr !503
  store i32 0, i32* %2, align 4, !insn.addr !503
  ret i32 %0, !insn.addr !504
}

define i32 @_ZN9ContainerIiE4pushEi(i32* %result, i32 %arg2) local_unnamed_addr {
dec_label_pc_2acc:
  %r0.0.reg2mem = alloca i32, !insn.addr !505
  %0 = ptrtoint i32* %result to i32
  %1 = add i32 %0, 40, !insn.addr !506
  %2 = inttoptr i32 %1 to i32*, !insn.addr !506
  %3 = load i32, i32* %2, align 4, !insn.addr !506
  %4 = icmp sgt i32 %3, 9, !insn.addr !507
  store i32 %3, i32* %r0.0.reg2mem, !insn.addr !507
  br i1 %4, label %dec_label_pc_2b0c, label %dec_label_pc_2af0, !insn.addr !507

dec_label_pc_2af0:                                ; preds = %dec_label_pc_2acc
  %5 = add i32 %3, 1, !insn.addr !508
  store i32 %5, i32* %2, align 4, !insn.addr !509
  %6 = mul i32 %3, 4, !insn.addr !510
  %7 = add i32 %6, %0, !insn.addr !510
  %8 = inttoptr i32 %7 to i32*, !insn.addr !510
  store i32 %arg2, i32* %8, align 4, !insn.addr !510
  store i32 %arg2, i32* %r0.0.reg2mem, !insn.addr !511
  br label %dec_label_pc_2b0c, !insn.addr !511

dec_label_pc_2b0c:                                ; preds = %dec_label_pc_2af0, %dec_label_pc_2acc
  %r0.0.reload = load i32, i32* %r0.0.reg2mem
  ret i32 %r0.0.reload, !insn.addr !512

; uselistorder directives
  uselistorder i32 %3, { 1, 2, 0, 3 }
}

define i32 @_ZNK9ContainerIiE3getEi(i32* %result, i32 %arg2) local_unnamed_addr {
dec_label_pc_2b14:
  %storemerge.reg2mem = alloca i32, !insn.addr !513
  %0 = icmp slt i32 %arg2, 0, !insn.addr !514
  store i32 0, i32* %storemerge.reg2mem, !insn.addr !515
  br i1 %0, label %dec_label_pc_2b70, label %dec_label_pc_2b38, !insn.addr !515

dec_label_pc_2b38:                                ; preds = %dec_label_pc_2b14
  %1 = ptrtoint i32* %result to i32
  %2 = add i32 %1, 40, !insn.addr !516
  %3 = inttoptr i32 %2 to i32*, !insn.addr !516
  %4 = load i32, i32* %3, align 4, !insn.addr !516
  %5 = icmp sgt i32 %4, %arg2, !insn.addr !517
  store i32 0, i32* %storemerge.reg2mem, !insn.addr !517
  br i1 %5, label %dec_label_pc_2b50, label %dec_label_pc_2b70, !insn.addr !517

dec_label_pc_2b50:                                ; preds = %dec_label_pc_2b38
  %6 = mul i32 %arg2, 4, !insn.addr !518
  %7 = add i32 %6, %1, !insn.addr !518
  %8 = inttoptr i32 %7 to i32*, !insn.addr !518
  %9 = load i32, i32* %8, align 4, !insn.addr !518
  store i32 %9, i32* %storemerge.reg2mem, !insn.addr !519
  br label %dec_label_pc_2b70, !insn.addr !519

dec_label_pc_2b70:                                ; preds = %dec_label_pc_2b14, %dec_label_pc_2b38, %dec_label_pc_2b50
  %storemerge.reload = load i32, i32* %storemerge.reg2mem
  ret i32 %storemerge.reload, !insn.addr !520

; uselistorder directives
  uselistorder i32* %storemerge.reg2mem, { 0, 3, 2, 1 }
  uselistorder label %dec_label_pc_2b70, { 2, 1, 0 }
}

define i32 @_ZNK9ContainerIiE7getSizeEv(i32* %result) local_unnamed_addr {
dec_label_pc_2b7c:
  %0 = ptrtoint i32* %result to i32
  %1 = add i32 %0, 40, !insn.addr !521
  %2 = inttoptr i32 %1 to i32*, !insn.addr !521
  %3 = load i32, i32* %2, align 4, !insn.addr !521
  ret i32 %3, !insn.addr !522
}

define i32 @_ZN9ContainerIdEC1Ev(i32* %result) local_unnamed_addr {
dec_label_pc_2b94:
  %0 = ptrtoint i32* %result to i32
  %1 = add i32 %0, 80, !insn.addr !523
  %2 = inttoptr i32 %1 to i32*, !insn.addr !523
  store i32 0, i32* %2, align 4, !insn.addr !523
  ret i32 %0, !insn.addr !524
}

define i32 @_ZN9ContainerIdE4pushEd(i32 %arg1, i32 %arg2, i32 %arg3, i32 %arg4) local_unnamed_addr {
dec_label_pc_2bb0:
  %r0.0.reg2mem = alloca i32, !insn.addr !525
  %0 = add i32 %arg1, 80, !insn.addr !526
  %1 = inttoptr i32 %0 to i32*, !insn.addr !526
  %2 = load i32, i32* %1, align 4, !insn.addr !526
  %3 = icmp sgt i32 %2, 9, !insn.addr !527
  store i32 %2, i32* %r0.0.reg2mem, !insn.addr !527
  br i1 %3, label %dec_label_pc_2bfc, label %dec_label_pc_2bd8, !insn.addr !527

dec_label_pc_2bd8:                                ; preds = %dec_label_pc_2bb0
  %4 = add i32 %2, 1, !insn.addr !528
  store i32 %4, i32* %1, align 4, !insn.addr !529
  %5 = mul i32 %2, 8, !insn.addr !530
  %6 = add i32 %5, %arg1, !insn.addr !530
  %7 = inttoptr i32 %6 to i32*, !insn.addr !530
  store i32 %arg3, i32* %7, align 4, !insn.addr !530
  %8 = add i32 %arg1, 4, !insn.addr !530
  %9 = add i32 %8, %2, !insn.addr !531
  %10 = inttoptr i32 %9 to i32*, !insn.addr !531
  store i32 %arg4, i32* %10, align 4, !insn.addr !531
  store i32 %arg4, i32* %r0.0.reg2mem, !insn.addr !532
  br label %dec_label_pc_2bfc, !insn.addr !532

dec_label_pc_2bfc:                                ; preds = %dec_label_pc_2bd8, %dec_label_pc_2bb0
  %r0.0.reload = load i32, i32* %r0.0.reg2mem
  ret i32 %r0.0.reload, !insn.addr !533

; uselistorder directives
  uselistorder i32 %2, { 2, 1, 3, 0, 4 }
  uselistorder i32 %arg1, { 1, 0, 2 }
}

define i32 @_ZNK9ContainerIdE3getEi(i32* %result, i32 %arg2) local_unnamed_addr {
dec_label_pc_2c04:
  %storemerge.reg2mem = alloca i32, !insn.addr !534
  %0 = icmp slt i32 %arg2, 0, !insn.addr !535
  store i32 0, i32* %storemerge.reg2mem, !insn.addr !536
  br i1 %0, label %dec_label_pc_2c6c, label %dec_label_pc_2c28, !insn.addr !536

dec_label_pc_2c28:                                ; preds = %dec_label_pc_2c04
  %1 = ptrtoint i32* %result to i32
  %2 = add i32 %1, 80, !insn.addr !537
  %3 = inttoptr i32 %2 to i32*, !insn.addr !537
  %4 = load i32, i32* %3, align 4, !insn.addr !537
  %5 = icmp sgt i32 %4, %arg2, !insn.addr !538
  store i32 0, i32* %storemerge.reg2mem, !insn.addr !538
  br i1 %5, label %dec_label_pc_2c40, label %dec_label_pc_2c6c, !insn.addr !538

dec_label_pc_2c40:                                ; preds = %dec_label_pc_2c28
  %6 = mul i32 %arg2, 8, !insn.addr !539
  %7 = add i32 %6, %1, !insn.addr !539
  %8 = inttoptr i32 %7 to i32*, !insn.addr !539
  %9 = load i32, i32* %8, align 4, !insn.addr !539
  store i32 %9, i32* %storemerge.reg2mem, !insn.addr !540
  br label %dec_label_pc_2c6c, !insn.addr !540

dec_label_pc_2c6c:                                ; preds = %dec_label_pc_2c04, %dec_label_pc_2c28, %dec_label_pc_2c40
  %storemerge.reload = load i32, i32* %storemerge.reg2mem
  ret i32 %storemerge.reload, !insn.addr !541

; uselistorder directives
  uselistorder i32* %storemerge.reg2mem, { 0, 3, 2, 1 }
  uselistorder label %dec_label_pc_2c6c, { 2, 1, 0 }
}

define i32 @_ZNK9ContainerIdE7getSizeEv(i32* %result) local_unnamed_addr {
dec_label_pc_2c7c:
  %0 = ptrtoint i32* %result to i32
  %1 = add i32 %0, 80, !insn.addr !542
  %2 = inttoptr i32 %1 to i32*, !insn.addr !542
  %3 = load i32, i32* %2, align 4, !insn.addr !542
  ret i32 %3, !insn.addr !543
}

define i32 @_ZNSt10unique_ptrIiSt14default_deleteIiEEC2IS1_vEEPi(i32* %result, i32* %arg2) local_unnamed_addr {
dec_label_pc_2c94:
  %0 = ptrtoint i32* %result to i32
  %1 = call i32 @_ZNSt15__uniq_ptr_dataIiSt14default_deleteIiELb1ELb1EECI2St15__uniq_ptr_implIiS1_EEPi(i32* %result, i32* %arg2), !insn.addr !544
  ret i32 %0, !insn.addr !545
}

define i32 @function_2ccc() local_unnamed_addr {
dec_label_pc_2ccc:
  %0 = call i32 @__clang_call_terminate(), !insn.addr !546
  ret i32 %0, !insn.addr !546
}

define i32 @_ZNKSt10unique_ptrIiSt14default_deleteIiEEdeEv(i32* %result) local_unnamed_addr {
dec_label_pc_2cd0:
  %0 = call i32 @_ZNKSt10unique_ptrIiSt14default_deleteIiEE3getEv(i32* %result), !insn.addr !547
  ret i32 %0, !insn.addr !548
}

define i32* @_ZSt4moveIRSt10unique_ptrIiSt14default_deleteIiEEEONSt16remove_referenceIT_E4typeEOS6_(i32** %arg1) local_unnamed_addr {
dec_label_pc_2d04:
  %0 = bitcast i32** %arg1 to i32*
  ret i32* %0, !insn.addr !549
}

define i32 @_ZNSt10unique_ptrIiSt14default_deleteIiEEC2EOS2_(i32* %result, i32* %arg2) local_unnamed_addr {
dec_label_pc_2d18:
  %0 = ptrtoint i32* %result to i32
  %1 = call i32 @_ZNSt15__uniq_ptr_dataIiSt14default_deleteIiELb1ELb1EEC2EOS2_(i32* %result, i32* %arg2), !insn.addr !550
  ret i32 %0, !insn.addr !551
}

define i32 @_ZNSt10unique_ptrIA_iSt14default_deleteIS0_EEC2IPiS2_vbEET_(i32* %result, i32* %arg2) local_unnamed_addr {
dec_label_pc_2d4c:
  %0 = ptrtoint i32* %result to i32
  %1 = call i32 @_ZNSt15__uniq_ptr_dataIiSt14default_deleteIA_iELb1ELb1EECI2St15__uniq_ptr_implIiS2_EEPi(i32* %result, i32* %arg2), !insn.addr !552
  ret i32 %0, !insn.addr !553
}

define i32 @function_2d84() local_unnamed_addr {
dec_label_pc_2d84:
  %0 = call i32 @__clang_call_terminate(), !insn.addr !554
  ret i32 %0, !insn.addr !554
}

define i32 @_ZNKSt10unique_ptrIA_iSt14default_deleteIS0_EEixEj(i32* %result, i32 %arg2) local_unnamed_addr {
dec_label_pc_2d88:
  %0 = call i32 @_ZNKSt10unique_ptrIA_iSt14default_deleteIS0_EE3getEv(i32* %result), !insn.addr !555
  %1 = mul i32 %arg2, 4, !insn.addr !556
  %2 = add i32 %0, %1, !insn.addr !556
  ret i32 %2, !insn.addr !557
}

define i32 @_ZNSt10unique_ptrIA_iSt14default_deleteIS0_EED2Ev(i32* %result) local_unnamed_addr {
dec_label_pc_2dc8:
  %0 = call i32 @_ZNSt15__uniq_ptr_implIiSt14default_deleteIA_iEE6_M_ptrEv(i32* %result), !insn.addr !558
  %1 = inttoptr i32 %0 to i32*, !insn.addr !559
  %2 = load i32, i32* %1, align 4, !insn.addr !559
  %3 = icmp eq i32 %2, 0, !insn.addr !560
  br i1 %3, label %dec_label_pc_2e1c, label %dec_label_pc_2e00, !insn.addr !561

dec_label_pc_2e00:                                ; preds = %dec_label_pc_2dc8
  %4 = call i32 @_ZNSt10unique_ptrIA_iSt14default_deleteIS0_EE11get_deleterEv(i32* %result), !insn.addr !562
  %5 = load i32, i32* %1, align 4, !insn.addr !563
  %6 = inttoptr i32 %4 to i32*, !insn.addr !564
  %7 = inttoptr i32 %5 to i32*, !insn.addr !564
  %8 = call i32 @_ZNKSt14default_deleteIA_iEclIiEENSt9enable_ifIXsr14is_convertibleIPA_T_PS0_EE5valueEvE4typeEPS4_(i32* %6, i32* %7), !insn.addr !564
  br label %dec_label_pc_2e1c, !insn.addr !565

dec_label_pc_2e1c:                                ; preds = %dec_label_pc_2e00, %dec_label_pc_2dc8
  %9 = ptrtoint i32* %result to i32
  store i32 0, i32* %1, align 4, !insn.addr !566
  ret i32 %9, !insn.addr !567

; uselistorder directives
  uselistorder i32* %1, { 1, 0, 2 }
  uselistorder i32* %result, { 2, 0, 1 }
}

define i32 @function_2e38() local_unnamed_addr {
dec_label_pc_2e38:
  %0 = call i32 @__clang_call_terminate(), !insn.addr !568
  ret i32 %0, !insn.addr !568
}

define i32 @_ZNSt10unique_ptrIiSt14default_deleteIiEED2Ev(i32* %result) local_unnamed_addr {
dec_label_pc_2e3c:
  %0 = call i32 @_ZNSt15__uniq_ptr_implIiSt14default_deleteIiEE6_M_ptrEv(i32* %result), !insn.addr !569
  %1 = inttoptr i32 %0 to i32*, !insn.addr !570
  %2 = load i32, i32* %1, align 4, !insn.addr !570
  %3 = icmp eq i32 %2, 0, !insn.addr !571
  br i1 %3, label %dec_label_pc_2ea0, label %dec_label_pc_2e74, !insn.addr !572

dec_label_pc_2e74:                                ; preds = %dec_label_pc_2e3c
  %4 = inttoptr i32 %0 to i32***, !insn.addr !573
  %5 = call i32 @_ZNSt10unique_ptrIiSt14default_deleteIiEE11get_deleterEv(i32* %result), !insn.addr !574
  %6 = call i32* @_ZSt4moveIRPiEONSt16remove_referenceIT_E4typeEOS3_(i32*** %4), !insn.addr !575
  %7 = load i32, i32* %6, align 4, !insn.addr !576
  %8 = inttoptr i32 %5 to i32*, !insn.addr !577
  %9 = inttoptr i32 %7 to i32*, !insn.addr !577
  %10 = call i32 @_ZNKSt14default_deleteIiEclEPi(i32* %8, i32* %9), !insn.addr !577
  br label %dec_label_pc_2ea0, !insn.addr !578

dec_label_pc_2ea0:                                ; preds = %dec_label_pc_2e74, %dec_label_pc_2e3c
  %11 = ptrtoint i32* %result to i32
  store i32 0, i32* %1, align 4, !insn.addr !579
  ret i32 %11, !insn.addr !580

; uselistorder directives
  uselistorder i32* (i32***)* @_ZSt4moveIRPiEONSt16remove_referenceIT_E4typeEOS3_, { 1, 0 }
  uselistorder i32* %result, { 2, 0, 1 }
}

define i32 @function_2ebc() local_unnamed_addr {
dec_label_pc_2ebc:
  %0 = call i32 @__clang_call_terminate(), !insn.addr !581
  ret i32 %0, !insn.addr !581
}

define i32 @_ZN12RTTIDerivedAC2Ev(i32* %result) local_unnamed_addr {
dec_label_pc_2ec0:
  %0 = ptrtoint i32* %result to i32
  %1 = call i32 @_ZN8RTTIBaseC2Ev(i32* %result), !insn.addr !582
  store i32 ptrtoint (i32* @global_var_14ec4 to i32), i32* %result, align 4, !insn.addr !583
  ret i32 %0, !insn.addr !584
}

define i32 @_ZN12RTTIDerivedBC2Ev(i32* %result) local_unnamed_addr {
dec_label_pc_2f00:
  %0 = ptrtoint i32* %result to i32
  %1 = call i32 @_ZN8RTTIBaseC2Ev(i32* %result), !insn.addr !585
  store i32 ptrtoint (i32* @global_var_14eec to i32), i32* %result, align 4, !insn.addr !586
  ret i32 %0, !insn.addr !587

; uselistorder directives
  uselistorder i32 (i32*)* @_ZN8RTTIBaseC2Ev, { 1, 0 }
}

define i32 @_ZNKSt9type_infoeqERKS_(i32* %result, i32* %arg2) local_unnamed_addr {
dec_label_pc_2f40:
  %stack_var_-20.0.reg2mem = alloca i32, !insn.addr !588
  %0 = ptrtoint i32* %arg2 to i32
  %1 = ptrtoint i32* %result to i32
  %2 = add i32 %1, 4, !insn.addr !589
  %3 = inttoptr i32 %2 to i32*, !insn.addr !589
  %4 = load i32, i32* %3, align 4, !insn.addr !589
  %5 = add i32 %0, 4, !insn.addr !590
  %6 = inttoptr i32 %5 to i32*, !insn.addr !590
  %7 = load i32, i32* %6, align 4, !insn.addr !590
  %8 = icmp eq i32 %4, %7, !insn.addr !591
  store i32 1, i32* %stack_var_-20.0.reg2mem, !insn.addr !592
  br i1 %8, label %dec_label_pc_2fcc, label %dec_label_pc_2f7c, !insn.addr !592

dec_label_pc_2f7c:                                ; preds = %dec_label_pc_2f40
  %9 = inttoptr i32 %4 to i8*, !insn.addr !593
  %10 = load i8, i8* %9, align 1, !insn.addr !593
  %11 = icmp eq i8 %10, 42, !insn.addr !594
  store i32 0, i32* %stack_var_-20.0.reg2mem, !insn.addr !595
  br i1 %11, label %dec_label_pc_2fcc, label %dec_label_pc_2f9c, !insn.addr !595

dec_label_pc_2f9c:                                ; preds = %dec_label_pc_2f7c
  %12 = call i32 @function_e3c(i32 %4, i32 %7, i32 %7), !insn.addr !596
  %13 = icmp ne i32 %12, 0, !insn.addr !597
  %14 = icmp ne i1 %13, true, !insn.addr !597
  %15 = zext i1 %14 to i32, !insn.addr !598
  store i32 %15, i32* %stack_var_-20.0.reg2mem, !insn.addr !599
  br label %dec_label_pc_2fcc, !insn.addr !599

dec_label_pc_2fcc:                                ; preds = %dec_label_pc_2f7c, %dec_label_pc_2f9c, %dec_label_pc_2f40
  %stack_var_-20.0.reload = load i32, i32* %stack_var_-20.0.reg2mem
  ret i32 %stack_var_-20.0.reload, !insn.addr !600

; uselistorder directives
  uselistorder i32 %7, { 1, 0, 2 }
  uselistorder label %dec_label_pc_2fcc, { 1, 0, 2 }
}

define i32 @_ZNK12RTTIDerivedA13derivedA_dataEv(i32* %result) local_unnamed_addr {
dec_label_pc_2fe0:
  ret i32 100, !insn.addr !601
}

define i32 @_ZNK12RTTIDerivedB13derivedB_dataEv(i32* %result) local_unnamed_addr {
dec_label_pc_2ff4:
  ret i32 200, !insn.addr !602
}

define i32 @_ZNKSt9type_info4nameEv(i32* %result) local_unnamed_addr {
dec_label_pc_3008:
  %0 = ptrtoint i32* %result to i32
  %1 = add i32 %0, 4, !insn.addr !603
  %2 = inttoptr i32 %1 to i32*, !insn.addr !603
  %3 = load i32, i32* %2, align 4, !insn.addr !603
  %4 = inttoptr i32 %3 to i8*, !insn.addr !604
  %5 = load i8, i8* %4, align 1, !insn.addr !604
  %6 = icmp eq i8 %5, 42, !insn.addr !605
  %7 = zext i1 %6 to i32
  %storemerge = add i32 %3, %7
  ret i32 %storemerge, !insn.addr !606
}

define i32 @_ZNK4Base7getNameEv(i32* %result) local_unnamed_addr {
dec_label_pc_305c:
  ret i32 ptrtoint ([5 x i8]* @global_var_439d to i32), !insn.addr !607
}

define i32 @_ZN4BaseD0Ev(i32* %result) local_unnamed_addr {
dec_label_pc_3078:
  %0 = alloca i32
  %1 = load i32, i32* %0
  %2 = ptrtoint i32* %result to i32
  %3 = call i32 @_ZN4BaseD2Ev(i32* %result), !insn.addr !608
  %4 = call i32 @function_dac(i32 %2, i32 %1), !insn.addr !609
  ret i32 %4, !insn.addr !610

; uselistorder directives
  uselistorder i32 (i32*)* @_ZN4BaseD2Ev, { 2, 1, 3, 0 }
}

define i32 @_ZNK7Derived7getNameEv(i32* %result) local_unnamed_addr {
dec_label_pc_30a8:
  ret i32 ptrtoint ([8 x i8]* @global_var_43a2 to i32), !insn.addr !611
}

define i32 @_ZN7DerivedD0Ev(i32* %result) local_unnamed_addr {
dec_label_pc_30c4:
  %0 = alloca i32
  %1 = load i32, i32* %0
  %2 = ptrtoint i32* %result to i32
  %3 = call i32 @_ZN7DerivedD2Ev(i32* %result), !insn.addr !612
  %4 = call i32 @function_dac(i32 %2, i32 %1), !insn.addr !613
  ret i32 %4, !insn.addr !614

; uselistorder directives
  uselistorder i32 (i32*)* @_ZN7DerivedD2Ev, { 1, 2, 0 }
}

define i32 @_ZN5BaseAC2Ev(i32* %result) local_unnamed_addr {
dec_label_pc_30f4:
  %0 = ptrtoint i32* %result to i32
  store i32 ptrtoint (i32* @global_var_14ce8 to i32), i32* %result, align 4, !insn.addr !615
  ret i32 %0, !insn.addr !616
}

define i32 @_ZN5BaseBC2Ev(i32* %result) local_unnamed_addr {
dec_label_pc_311c:
  %0 = ptrtoint i32* %result to i32
  store i32 ptrtoint (i32* @global_var_14cfc to i32), i32* %result, align 4, !insn.addr !617
  ret i32 %0, !insn.addr !618
}

define i32 @_ZN12MultiDerived5funcAEv(i32* %result) local_unnamed_addr {
dec_label_pc_3144:
  ret i32 30, !insn.addr !619
}

define i32 @_ZN12MultiDerivedD0Ev(i32* %result) local_unnamed_addr {
dec_label_pc_3158:
  %0 = alloca i32
  %1 = load i32, i32* %0
  %2 = ptrtoint i32* %result to i32
  %3 = call i32 @_ZN12MultiDerivedD2Ev(i32* %result), !insn.addr !620
  %4 = call i32 @function_dac(i32 %2, i32 %1), !insn.addr !621
  ret i32 %4, !insn.addr !622
}

define i32 @_ZN12MultiDerived5funcBEv(i32* %result) local_unnamed_addr {
dec_label_pc_3188:
  ret i32 40, !insn.addr !623
}

define i32 @_ZThn8_N12MultiDerived5funcBEv(i32 %arg1) local_unnamed_addr {
dec_label_pc_319c:
  %0 = add i32 %arg1, -8, !insn.addr !624
  %1 = inttoptr i32 %0 to i32*, !insn.addr !625
  %2 = call i32 @_ZN12MultiDerived5funcBEv(i32* %1), !insn.addr !625
  ret i32 %2, !insn.addr !625
}

define i32 @_ZThn8_N12MultiDerivedD1Ev(i32 %arg1) local_unnamed_addr {
dec_label_pc_31b4:
  %0 = add i32 %arg1, -8, !insn.addr !626
  %1 = inttoptr i32 %0 to i32*, !insn.addr !627
  %2 = call i32 @_ZN12MultiDerivedD2Ev(i32* %1), !insn.addr !627
  ret i32 %2, !insn.addr !627

; uselistorder directives
  uselistorder i32 (i32*)* @_ZN12MultiDerivedD2Ev, { 2, 1, 3, 0 }
}

define i32 @_ZThn8_N12MultiDerivedD0Ev(i32 %arg1) local_unnamed_addr {
dec_label_pc_31d0:
  %0 = add i32 %arg1, -8, !insn.addr !628
  %1 = inttoptr i32 %0 to i32*, !insn.addr !629
  %2 = call i32 @_ZN12MultiDerivedD0Ev(i32* %1), !insn.addr !629
  ret i32 %2, !insn.addr !629
}

define i32 @_ZN5BaseA5funcAEv(i32* %result) local_unnamed_addr {
dec_label_pc_31e8:
  ret i32 10, !insn.addr !630

; uselistorder directives
  uselistorder i32 10, { 0, 2, 1, 3, 4, 5, 6, 8, 7 }
}

define i32 @_ZN5BaseAD2Ev(i32* %result) local_unnamed_addr {
dec_label_pc_31fc:
  %0 = ptrtoint i32* %result to i32
  ret i32 %0, !insn.addr !631
}

define i32 @_ZN5BaseAD0Ev(i32* %result) local_unnamed_addr {
dec_label_pc_3210:
  %0 = alloca i32
  %1 = load i32, i32* %0
  %2 = ptrtoint i32* %result to i32
  %3 = call i32 @_ZN5BaseAD2Ev(i32* %result), !insn.addr !632
  %4 = call i32 @function_dac(i32 %2, i32 %1), !insn.addr !633
  ret i32 %4, !insn.addr !634

; uselistorder directives
  uselistorder i32 (i32*)* @_ZN5BaseAD2Ev, { 1, 0 }
}

define i32 @_ZN5BaseB5funcBEv(i32* %result) local_unnamed_addr {
dec_label_pc_3240:
  ret i32 20, !insn.addr !635
}

define i32 @_ZN5BaseBD2Ev(i32* %result) local_unnamed_addr {
dec_label_pc_3254:
  %0 = ptrtoint i32* %result to i32
  ret i32 %0, !insn.addr !636
}

define i32 @_ZN5BaseBD0Ev(i32* %result) local_unnamed_addr {
dec_label_pc_3268:
  %0 = alloca i32
  %1 = load i32, i32* %0
  %2 = ptrtoint i32* %result to i32
  %3 = call i32 @_ZN5BaseBD2Ev(i32* %result), !insn.addr !637
  %4 = call i32 @function_dac(i32 %2, i32 %1), !insn.addr !638
  ret i32 %4, !insn.addr !639

; uselistorder directives
  uselistorder i32 (i32*)* @_ZN5BaseBD2Ev, { 1, 0 }
}

define i32 @_ZN11VirtualBaseC2Ev(i32* %result) local_unnamed_addr {
dec_label_pc_3298:
  %0 = ptrtoint i32* %result to i32
  store i32 ptrtoint (i32* @global_var_14e38 to i32), i32* %result, align 4, !insn.addr !640
  ret i32 %0, !insn.addr !641
}

define i32 @_ZN7MiddleAC2Ev(i32* %this, i32* %result) local_unnamed_addr {
dec_label_pc_32c0:
  %0 = ptrtoint i32* %result to i32
  %1 = ptrtoint i32* %this to i32
  store i32 %0, i32* %this, align 4, !insn.addr !642
  %2 = add i32 %0, 4, !insn.addr !643
  %3 = inttoptr i32 %2 to i32*, !insn.addr !643
  %4 = load i32, i32* %3, align 4, !insn.addr !643
  %5 = add i32 %1, -12, !insn.addr !644
  %6 = inttoptr i32 %5 to i32*, !insn.addr !644
  %7 = load i32, i32* %6, align 4, !insn.addr !644
  %8 = add i32 %7, %1, !insn.addr !645
  %9 = inttoptr i32 %8 to i32*, !insn.addr !645
  store i32 %4, i32* %9, align 4, !insn.addr !645
  ret i32 %1, !insn.addr !646

; uselistorder directives
  uselistorder i32 %1, { 2, 0, 1 }
}

define i32 @_ZN7MiddleBC2Ev(i32* %this, i32* %result) local_unnamed_addr {
dec_label_pc_32f4:
  %0 = ptrtoint i32* %result to i32
  %1 = ptrtoint i32* %this to i32
  store i32 %0, i32* %this, align 4, !insn.addr !647
  %2 = add i32 %0, 4, !insn.addr !648
  %3 = inttoptr i32 %2 to i32*, !insn.addr !648
  %4 = load i32, i32* %3, align 4, !insn.addr !648
  %5 = add i32 %1, -12, !insn.addr !649
  %6 = inttoptr i32 %5 to i32*, !insn.addr !649
  %7 = load i32, i32* %6, align 4, !insn.addr !649
  %8 = add i32 %7, %1, !insn.addr !650
  %9 = inttoptr i32 %8 to i32*, !insn.addr !650
  store i32 %4, i32* %9, align 4, !insn.addr !650
  ret i32 %1, !insn.addr !651

; uselistorder directives
  uselistorder i32 %1, { 2, 0, 1 }
}

define i32 @_ZN7MiddleA4funcEv(i32* %result) local_unnamed_addr {
dec_label_pc_3328:
  %0 = ptrtoint i32* %result to i32
  %1 = add i32 %0, -12, !insn.addr !652
  %2 = inttoptr i32 %1 to i32*, !insn.addr !652
  %3 = load i32, i32* %2, align 4, !insn.addr !652
  %4 = add i32 %0, 4, !insn.addr !653
  %5 = add i32 %4, %3, !insn.addr !654
  %6 = inttoptr i32 %5 to i32*, !insn.addr !654
  %7 = load i32, i32* %6, align 4, !insn.addr !654
  %8 = add i32 %7, 150, !insn.addr !655
  ret i32 %8, !insn.addr !656
}

define i32 @_ZN7MiddleAD1Ev(i32* %result) local_unnamed_addr {
dec_label_pc_3350:
  %0 = ptrtoint i32* %result to i32
  %1 = call i32 @_ZN7MiddleAD2Ev(i32* %result, i32* inttoptr (i32 85624 to i32*)), !insn.addr !657
  %2 = add i32 %0, 8, !insn.addr !658
  %3 = inttoptr i32 %2 to i32*, !insn.addr !659
  %4 = call i32 @_ZN11VirtualBaseD2Ev(i32* %3), !insn.addr !659
  ret i32 %0, !insn.addr !660
}

define i32 @_ZN7MiddleAD0Ev(i32* %result) local_unnamed_addr {
dec_label_pc_3394:
  %0 = alloca i32
  %1 = load i32, i32* %0
  %2 = ptrtoint i32* %result to i32
  %3 = call i32 @_ZN7MiddleAD1Ev(i32* %result), !insn.addr !661
  %4 = call i32 @function_dac(i32 %2, i32 %1), !insn.addr !662
  ret i32 %4, !insn.addr !663
}

define i32 @_ZTv0_n12_N7MiddleA4funcEv(i32 %arg1) local_unnamed_addr {
dec_label_pc_33c4:
  %0 = add i32 %arg1, -12, !insn.addr !664
  %1 = inttoptr i32 %0 to i32*, !insn.addr !664
  %2 = load i32, i32* %1, align 4, !insn.addr !664
  %3 = add i32 %2, %arg1, !insn.addr !665
  %4 = inttoptr i32 %3 to i32*, !insn.addr !666
  %5 = call i32 @_ZN7MiddleA4funcEv(i32* %4), !insn.addr !666
  ret i32 %5, !insn.addr !666
}

define i32 @_ZTv0_n16_N7MiddleAD1Ev(i32 %arg1) local_unnamed_addr {
dec_label_pc_33e4:
  %0 = add i32 %arg1, -16, !insn.addr !667
  %1 = inttoptr i32 %0 to i32*, !insn.addr !667
  %2 = load i32, i32* %1, align 4, !insn.addr !667
  %3 = add i32 %2, %arg1, !insn.addr !668
  %4 = inttoptr i32 %3 to i32*, !insn.addr !669
  %5 = call i32 @_ZN7MiddleAD1Ev(i32* %4), !insn.addr !669
  ret i32 %5, !insn.addr !669

; uselistorder directives
  uselistorder i32 (i32*)* @_ZN7MiddleAD1Ev, { 1, 0 }
}

define i32 @_ZTv0_n16_N7MiddleAD0Ev(i32 %arg1) local_unnamed_addr {
dec_label_pc_3408:
  %0 = add i32 %arg1, -16, !insn.addr !670
  %1 = inttoptr i32 %0 to i32*, !insn.addr !670
  %2 = load i32, i32* %1, align 4, !insn.addr !670
  %3 = add i32 %2, %arg1, !insn.addr !671
  %4 = inttoptr i32 %3 to i32*, !insn.addr !672
  %5 = call i32 @_ZN7MiddleAD0Ev(i32* %4), !insn.addr !672
  ret i32 %5, !insn.addr !672
}

define i32 @_ZN7MiddleB4funcEv(i32* %result) local_unnamed_addr {
dec_label_pc_3428:
  %0 = ptrtoint i32* %result to i32
  %1 = add i32 %0, -12, !insn.addr !673
  %2 = inttoptr i32 %1 to i32*, !insn.addr !673
  %3 = load i32, i32* %2, align 4, !insn.addr !673
  %4 = add i32 %0, 4, !insn.addr !674
  %5 = add i32 %4, %3, !insn.addr !675
  %6 = inttoptr i32 %5 to i32*, !insn.addr !675
  %7 = load i32, i32* %6, align 4, !insn.addr !675
  %8 = add i32 %7, 200, !insn.addr !676
  ret i32 %8, !insn.addr !677

; uselistorder directives
  uselistorder i32 200, { 2, 0, 1 }
}

define i32 @_ZN7MiddleBD1Ev(i32* %result) local_unnamed_addr {
dec_label_pc_3450:
  %0 = ptrtoint i32* %result to i32
  %1 = call i32 @_ZN7MiddleBD2Ev(i32* %result, i32* inttoptr (i32 85684 to i32*)), !insn.addr !678
  %2 = add i32 %0, 8, !insn.addr !679
  %3 = inttoptr i32 %2 to i32*, !insn.addr !680
  %4 = call i32 @_ZN11VirtualBaseD2Ev(i32* %3), !insn.addr !680
  ret i32 %0, !insn.addr !681
}

define i32 @_ZN7MiddleBD0Ev(i32* %result) local_unnamed_addr {
dec_label_pc_3494:
  %0 = alloca i32
  %1 = load i32, i32* %0
  %2 = ptrtoint i32* %result to i32
  %3 = call i32 @_ZN7MiddleBD1Ev(i32* %result), !insn.addr !682
  %4 = call i32 @function_dac(i32 %2, i32 %1), !insn.addr !683
  ret i32 %4, !insn.addr !684
}

define i32 @_ZTv0_n12_N7MiddleB4funcEv(i32 %arg1) local_unnamed_addr {
dec_label_pc_34c4:
  %0 = add i32 %arg1, -12, !insn.addr !685
  %1 = inttoptr i32 %0 to i32*, !insn.addr !685
  %2 = load i32, i32* %1, align 4, !insn.addr !685
  %3 = add i32 %2, %arg1, !insn.addr !686
  %4 = inttoptr i32 %3 to i32*, !insn.addr !687
  %5 = call i32 @_ZN7MiddleB4funcEv(i32* %4), !insn.addr !687
  ret i32 %5, !insn.addr !687
}

define i32 @_ZTv0_n16_N7MiddleBD1Ev(i32 %arg1) local_unnamed_addr {
dec_label_pc_34e4:
  %0 = add i32 %arg1, -16, !insn.addr !688
  %1 = inttoptr i32 %0 to i32*, !insn.addr !688
  %2 = load i32, i32* %1, align 4, !insn.addr !688
  %3 = add i32 %2, %arg1, !insn.addr !689
  %4 = inttoptr i32 %3 to i32*, !insn.addr !690
  %5 = call i32 @_ZN7MiddleBD1Ev(i32* %4), !insn.addr !690
  ret i32 %5, !insn.addr !690

; uselistorder directives
  uselistorder i32 (i32*)* @_ZN7MiddleBD1Ev, { 1, 0 }
}

define i32 @_ZTv0_n16_N7MiddleBD0Ev(i32 %arg1) local_unnamed_addr {
dec_label_pc_3508:
  %0 = add i32 %arg1, -16, !insn.addr !691
  %1 = inttoptr i32 %0 to i32*, !insn.addr !691
  %2 = load i32, i32* %1, align 4, !insn.addr !691
  %3 = add i32 %2, %arg1, !insn.addr !692
  %4 = inttoptr i32 %3 to i32*, !insn.addr !693
  %5 = call i32 @_ZN7MiddleBD0Ev(i32* %4), !insn.addr !693
  ret i32 %5, !insn.addr !693
}

define i32 @_ZN14DiamondDerived4funcEv(i32* %result) local_unnamed_addr {
dec_label_pc_3528:
  %0 = ptrtoint i32* %result to i32
  %1 = add i32 %0, -12, !insn.addr !694
  %2 = inttoptr i32 %1 to i32*, !insn.addr !694
  %3 = load i32, i32* %2, align 4, !insn.addr !694
  %4 = add i32 %0, 4, !insn.addr !695
  %5 = add i32 %4, %3, !insn.addr !696
  %6 = inttoptr i32 %5 to i32*, !insn.addr !696
  %7 = load i32, i32* %6, align 4, !insn.addr !696
  %8 = add i32 %7, 250, !insn.addr !697
  ret i32 %8, !insn.addr !698
}

define i32 @_ZN14DiamondDerivedD0Ev(i32* %result) local_unnamed_addr {
dec_label_pc_3550:
  %0 = alloca i32
  %1 = load i32, i32* %0
  %2 = ptrtoint i32* %result to i32
  %3 = call i32 @_ZN14DiamondDerivedD1Ev(i32* %result), !insn.addr !699
  %4 = call i32 @function_dac(i32 %2, i32 %1), !insn.addr !700
  ret i32 %4, !insn.addr !701
}

define i32 @_ZThn8_N14DiamondDerived4funcEv(i32 %arg1) local_unnamed_addr {
dec_label_pc_3580:
  %0 = add i32 %arg1, -8, !insn.addr !702
  %1 = inttoptr i32 %0 to i32*, !insn.addr !703
  %2 = call i32 @_ZN14DiamondDerived4funcEv(i32* %1), !insn.addr !703
  ret i32 %2, !insn.addr !703
}

define i32 @_ZThn8_N14DiamondDerivedD1Ev(i32 %arg1) local_unnamed_addr {
dec_label_pc_3598:
  %0 = add i32 %arg1, -8, !insn.addr !704
  %1 = inttoptr i32 %0 to i32*, !insn.addr !705
  %2 = call i32 @_ZN14DiamondDerivedD1Ev(i32* %1), !insn.addr !705
  ret i32 %2, !insn.addr !705
}

define i32 @_ZThn8_N14DiamondDerivedD0Ev(i32 %arg1) local_unnamed_addr {
dec_label_pc_35b4:
  %0 = add i32 %arg1, -8, !insn.addr !706
  %1 = inttoptr i32 %0 to i32*, !insn.addr !707
  %2 = call i32 @_ZN14DiamondDerivedD0Ev(i32* %1), !insn.addr !707
  ret i32 %2, !insn.addr !707
}

define i32 @_ZTv0_n12_N14DiamondDerived4funcEv(i32 %arg1) local_unnamed_addr {
dec_label_pc_35cc:
  %0 = add i32 %arg1, -12, !insn.addr !708
  %1 = inttoptr i32 %0 to i32*, !insn.addr !708
  %2 = load i32, i32* %1, align 4, !insn.addr !708
  %3 = add i32 %2, %arg1, !insn.addr !709
  %4 = inttoptr i32 %3 to i32*, !insn.addr !710
  %5 = call i32 @_ZN14DiamondDerived4funcEv(i32* %4), !insn.addr !710
  ret i32 %5, !insn.addr !710

; uselistorder directives
  uselistorder i32 (i32*)* @_ZN14DiamondDerived4funcEv, { 1, 0 }
  uselistorder i32 -12, { 7, 8, 9, 10, 11, 12, 13, 14, 2, 3, 4, 5, 6, 15, 16, 0, 1 }
}

define i32 @_ZTv0_n16_N14DiamondDerivedD1Ev(i32 %arg1) local_unnamed_addr {
dec_label_pc_35ec:
  %0 = add i32 %arg1, -16, !insn.addr !711
  %1 = inttoptr i32 %0 to i32*, !insn.addr !711
  %2 = load i32, i32* %1, align 4, !insn.addr !711
  %3 = add i32 %2, %arg1, !insn.addr !712
  %4 = inttoptr i32 %3 to i32*, !insn.addr !713
  %5 = call i32 @_ZN14DiamondDerivedD1Ev(i32* %4), !insn.addr !713
  ret i32 %5, !insn.addr !713

; uselistorder directives
  uselistorder i32 (i32*)* @_ZN14DiamondDerivedD1Ev, { 3, 2, 1, 4, 0 }
}

define i32 @_ZTv0_n16_N14DiamondDerivedD0Ev(i32 %arg1) local_unnamed_addr {
dec_label_pc_3610:
  %0 = add i32 %arg1, -16, !insn.addr !714
  %1 = inttoptr i32 %0 to i32*, !insn.addr !714
  %2 = load i32, i32* %1, align 4, !insn.addr !714
  %3 = add i32 %2, %arg1, !insn.addr !715
  %4 = inttoptr i32 %3 to i32*, !insn.addr !716
  %5 = call i32 @_ZN14DiamondDerivedD0Ev(i32* %4), !insn.addr !716
  ret i32 %5, !insn.addr !716

; uselistorder directives
  uselistorder i32 (i32*)* @_ZN14DiamondDerivedD0Ev, { 1, 0 }
  uselistorder i32 -16, { 5, 6, 7, 8, 9, 10, 0, 2, 1, 3, 4 }
}

define i32 @_ZN11VirtualBase4funcEv(i32* %result) local_unnamed_addr {
dec_label_pc_3630:
  ret i32 100, !insn.addr !717
}

define i32 @_ZN11VirtualBaseD2Ev(i32* %result) local_unnamed_addr {
dec_label_pc_3644:
  %0 = ptrtoint i32* %result to i32
  ret i32 %0, !insn.addr !718
}

define i32 @_ZN11VirtualBaseD0Ev(i32* %result) local_unnamed_addr {
dec_label_pc_3658:
  %0 = alloca i32
  %1 = load i32, i32* %0
  %2 = ptrtoint i32* %result to i32
  %3 = call i32 @_ZN11VirtualBaseD2Ev(i32* %result), !insn.addr !719
  %4 = call i32 @function_dac(i32 %2, i32 %1), !insn.addr !720
  ret i32 %4, !insn.addr !721

; uselistorder directives
  uselistorder i32 (i32*)* @_ZN11VirtualBaseD2Ev, { 3, 2, 1, 0 }
}

define i32 @_ZN7MiddleAD2Ev(i32* %this, i32* %result) local_unnamed_addr {
dec_label_pc_3688:
  %0 = ptrtoint i32* %this to i32
  ret i32 %0, !insn.addr !722
}

define i32 @_ZN7MiddleBD2Ev(i32* %this, i32* %result) local_unnamed_addr {
dec_label_pc_36a0:
  %0 = ptrtoint i32* %this to i32
  ret i32 %0, !insn.addr !723
}

define i32 @_ZN14DiamondDerivedD2Ev(i32* %this, i32* %result) local_unnamed_addr {
dec_label_pc_36b8:
  %0 = ptrtoint i32* %result to i32
  %1 = ptrtoint i32* %this to i32
  %2 = add i32 %1, 8, !insn.addr !724
  %3 = add i32 %0, 12, !insn.addr !725
  %4 = inttoptr i32 %2 to i32*, !insn.addr !726
  %5 = inttoptr i32 %3 to i32*, !insn.addr !726
  %6 = call i32 @_ZN7MiddleBD2Ev(i32* %4, i32* %5), !insn.addr !726
  %7 = add i32 %0, 4, !insn.addr !727
  %8 = inttoptr i32 %7 to i32*, !insn.addr !728
  %9 = call i32 @_ZN7MiddleAD2Ev(i32* %this, i32* %8), !insn.addr !728
  ret i32 %1, !insn.addr !729

; uselistorder directives
  uselistorder i32 4, { 28, 5, 6, 7, 29, 30, 17, 18, 19, 0, 8, 1, 2, 22, 23, 24, 25, 26, 27, 32, 33, 3, 34, 4, 35, 36, 37, 10, 11, 12, 13, 20, 14, 15, 21, 16, 31, 9 }
  uselistorder i32 12, { 2, 0, 1 }
  uselistorder i32 8, { 9, 6, 7, 0, 1, 10, 11, 12, 8, 2, 3, 4, 5 }
}

define i32 @_ZNSt15__uniq_ptr_dataIiSt14default_deleteIiELb1ELb1EEC2EOS2_(i32* %result, i32* %arg2) local_unnamed_addr {
dec_label_pc_3708:
  %0 = ptrtoint i32* %result to i32
  %1 = call i32 @_ZNSt15__uniq_ptr_implIiSt14default_deleteIiEEC2EOS2_(i32* %result, i32* %arg2), !insn.addr !730
  ret i32 %0, !insn.addr !731
}

define i32 @_ZNSt15__uniq_ptr_implIiSt14default_deleteIiEEC2EOS2_(i32* %result, i32* %arg2) local_unnamed_addr {
dec_label_pc_373c:
  %0 = ptrtoint i32* %result to i32
  %1 = bitcast i32* %arg2 to i32**, !insn.addr !732
  %2 = call i32* @_ZSt4moveIRSt5tupleIJPiSt14default_deleteIiEEEEONSt16remove_referenceIT_E4typeEOS7_(i32** %1), !insn.addr !732
  %3 = call i32 @_ZNSt5tupleIJPiSt14default_deleteIiEEEC2EOS3_(i32* %result, i32* %2), !insn.addr !733
  %4 = call i32 @_ZNSt15__uniq_ptr_implIiSt14default_deleteIiEE6_M_ptrEv(i32* %arg2), !insn.addr !734
  %5 = inttoptr i32 %4 to i32*, !insn.addr !735
  store i32 0, i32* %5, align 4, !insn.addr !735
  ret i32 %0, !insn.addr !736
}

define i32 @function_3798() local_unnamed_addr {
dec_label_pc_3798:
  %0 = call i32 @__clang_call_terminate(), !insn.addr !737
  ret i32 %0, !insn.addr !737
}

define i32* @_ZSt4moveIRSt5tupleIJPiSt14default_deleteIiEEEEONSt16remove_referenceIT_E4typeEOS7_(i32** %arg1) local_unnamed_addr {
dec_label_pc_379c:
  %0 = bitcast i32** %arg1 to i32*
  ret i32* %0, !insn.addr !738
}

define i32 @_ZNSt5tupleIJPiSt14default_deleteIiEEEC2EOS3_(i32* %result, i32* %arg2) local_unnamed_addr {
dec_label_pc_37b0:
  %0 = ptrtoint i32* %result to i32
  %1 = call i32 @_ZNSt11_Tuple_implILj0EJPiSt14default_deleteIiEEEC2EOS3_(i32* %result, i32* %arg2), !insn.addr !739
  ret i32 %0, !insn.addr !740
}

define i32 @_ZNSt15__uniq_ptr_implIiSt14default_deleteIiEE6_M_ptrEv(i32* %result) local_unnamed_addr {
dec_label_pc_37e4:
  %0 = call i32* @_ZSt3getILj0EJPiSt14default_deleteIiEEERNSt13tuple_elementIXT_ESt5tupleIJDpT0_EEE4typeERS7_(i32* %result), !insn.addr !741
  %1 = ptrtoint i32* %0 to i32, !insn.addr !741
  ret i32 %1, !insn.addr !742
}

define i32 @__clang_call_terminate() local_unnamed_addr {
dec_label_pc_3808:
  %0 = alloca i32
  %1 = load i32, i32* %0
  %2 = call i32 @function_d64(i32 %1), !insn.addr !743
  %3 = call i32 @function_d58(i32 %2), !insn.addr !744
  ret i32 %3, !insn.addr !744
}

define i32 @_ZNSt11_Tuple_implILj0EJPiSt14default_deleteIiEEEC2EOS3_(i32* %result, i32* %arg2) local_unnamed_addr {
dec_label_pc_3810:
  %0 = ptrtoint i32* %arg2 to i32
  %1 = ptrtoint i32* %result to i32
  %2 = call i32 @_ZNSt11_Tuple_implILj1EJSt14default_deleteIiEEEC2EOS2_(i32* %result, i32* %arg2), !insn.addr !745
  store i32 %0, i32* %result, align 4, !insn.addr !746
  ret i32 %1, !insn.addr !747
}

define i32 @_ZNSt11_Tuple_implILj1EJSt14default_deleteIiEEEC2EOS2_(i32* %result, i32* %arg2) local_unnamed_addr {
dec_label_pc_3850:
  %0 = ptrtoint i32* %result to i32
  ret i32 %0, !insn.addr !748
}

define i32* @_ZSt3getILj0EJPiSt14default_deleteIiEEERNSt13tuple_elementIXT_ESt5tupleIJDpT0_EEE4typeERS7_(i32* %arg1) local_unnamed_addr {
dec_label_pc_3868:
  %0 = call i32** @_ZSt12__get_helperILj0EPiJSt14default_deleteIiEEERT0_RSt11_Tuple_implIXT_EJS3_DpT1_EE(i32* %arg1), !insn.addr !749
  %1 = bitcast i32** %0 to i32*, !insn.addr !750
  ret i32* %1, !insn.addr !750
}

define i32** @_ZSt12__get_helperILj0EPiJSt14default_deleteIiEEERT0_RSt11_Tuple_implIXT_EJS3_DpT1_EE(i32* %arg1) local_unnamed_addr {
dec_label_pc_388c:
  %0 = call i32 @_ZNSt11_Tuple_implILj0EJPiSt14default_deleteIiEEE7_M_headERS3_(i32* %arg1), !insn.addr !751
  %1 = inttoptr i32 %0 to i32**, !insn.addr !752
  ret i32** %1, !insn.addr !752
}

define i32 @_ZNSt11_Tuple_implILj0EJPiSt14default_deleteIiEEE7_M_headERS3_(i32* %arg1) local_unnamed_addr {
dec_label_pc_38b0:
  %0 = call i32 @_ZNSt10_Head_baseILj0EPiLb0EE7_M_headERS1_(i32* %arg1), !insn.addr !753
  ret i32 %0, !insn.addr !754
}

define i32 @_ZNSt10_Head_baseILj0EPiLb0EE7_M_headERS1_(i32* %arg1) local_unnamed_addr {
dec_label_pc_38d4:
  %0 = ptrtoint i32* %arg1 to i32
  ret i32 %0, !insn.addr !755
}

define i32 @_ZN8RTTIBaseC2Ev(i32* %result) local_unnamed_addr {
dec_label_pc_38e8:
  %0 = ptrtoint i32* %result to i32
  store i32 ptrtoint (i32* @global_var_14ed8 to i32), i32* %result, align 4, !insn.addr !756
  ret i32 %0, !insn.addr !757
}

define i32 @_ZN12RTTIDerivedAD2Ev(i32* %result) local_unnamed_addr {
dec_label_pc_3910:
  %0 = ptrtoint i32* %result to i32
  %1 = call i32 @_ZN8RTTIBaseD2Ev(i32* %result), !insn.addr !758
  ret i32 %0, !insn.addr !759
}

define i32 @_ZN12RTTIDerivedAD0Ev(i32* %result) local_unnamed_addr {
dec_label_pc_393c:
  %0 = alloca i32
  %1 = load i32, i32* %0
  %2 = ptrtoint i32* %result to i32
  %3 = call i32 @_ZN12RTTIDerivedAD2Ev(i32* %result), !insn.addr !760
  %4 = call i32 @function_dac(i32 %2, i32 %1), !insn.addr !761
  ret i32 %4, !insn.addr !762
}

define i32 @_ZNK12RTTIDerivedA7getTypeEv(i32* %result) local_unnamed_addr {
dec_label_pc_396c:
  ret i32 1, !insn.addr !763
}

define i32 @_ZN8RTTIBaseD2Ev(i32* %result) local_unnamed_addr {
dec_label_pc_3980:
  %0 = ptrtoint i32* %result to i32
  ret i32 %0, !insn.addr !764
}

define i32 @_ZN8RTTIBaseD0Ev(i32* %result) local_unnamed_addr {
dec_label_pc_3994:
  %0 = alloca i32
  %1 = load i32, i32* %0
  %2 = ptrtoint i32* %result to i32
  %3 = call i32 @_ZN8RTTIBaseD2Ev(i32* %result), !insn.addr !765
  %4 = call i32 @function_dac(i32 %2, i32 %1), !insn.addr !766
  ret i32 %4, !insn.addr !767
}

define i32 @_ZNK8RTTIBase7getTypeEv(i32* %result) local_unnamed_addr {
dec_label_pc_39c4:
  ret i32 0, !insn.addr !768
}

define i32 @_ZN12RTTIDerivedBD2Ev(i32* %result) local_unnamed_addr {
dec_label_pc_39d8:
  %0 = ptrtoint i32* %result to i32
  %1 = call i32 @_ZN8RTTIBaseD2Ev(i32* %result), !insn.addr !769
  ret i32 %0, !insn.addr !770

; uselistorder directives
  uselistorder i32 (i32*)* @_ZN8RTTIBaseD2Ev, { 2, 1, 0 }
}

define i32 @_ZN12RTTIDerivedBD0Ev(i32* %result) local_unnamed_addr {
dec_label_pc_3a04:
  %0 = alloca i32
  %1 = load i32, i32* %0
  %2 = ptrtoint i32* %result to i32
  %3 = call i32 @_ZN12RTTIDerivedBD2Ev(i32* %result), !insn.addr !771
  %4 = call i32 @function_dac(i32 %2, i32 %1), !insn.addr !772
  ret i32 %4, !insn.addr !773
}

define i32 @_ZNK12RTTIDerivedB7getTypeEv(i32* %result) local_unnamed_addr {
dec_label_pc_3a34:
  ret i32 2, !insn.addr !774

; uselistorder directives
  uselistorder i32 2, { 1, 3, 4, 2, 5, 0, 6 }
}

define i32 @_ZNSt15__uniq_ptr_dataIiSt14default_deleteIiELb1ELb1EECI2St15__uniq_ptr_implIiS1_EEPi(i32* %result, i32* %arg2) local_unnamed_addr {
dec_label_pc_3a48:
  %0 = ptrtoint i32* %result to i32
  %1 = call i32 @_ZNSt15__uniq_ptr_implIiSt14default_deleteIiEEC2EPi(i32* %result, i32* %arg2), !insn.addr !775
  ret i32 %0, !insn.addr !776
}

define i32 @_ZNSt15__uniq_ptr_implIiSt14default_deleteIiEEC2EPi(i32* %result, i32* %arg2) local_unnamed_addr {
dec_label_pc_3a7c:
  %0 = ptrtoint i32* %arg2 to i32
  %1 = ptrtoint i32* %result to i32
  %2 = call i32 @_ZNSt5tupleIJPiSt14default_deleteIiEEEC2ILb1ELb1EEEv(i32* %result), !insn.addr !777
  %3 = call i32 @_ZNSt15__uniq_ptr_implIiSt14default_deleteIiEE6_M_ptrEv(i32* %result), !insn.addr !778
  %4 = inttoptr i32 %3 to i32*, !insn.addr !779
  store i32 %0, i32* %4, align 4, !insn.addr !779
  ret i32 %1, !insn.addr !780

; uselistorder directives
  uselistorder i32 (i32*)* @_ZNSt15__uniq_ptr_implIiSt14default_deleteIiEE6_M_ptrEv, { 2, 1, 0 }
}

define i32 @_ZNSt5tupleIJPiSt14default_deleteIiEEEC2ILb1ELb1EEEv(i32* %result) local_unnamed_addr {
dec_label_pc_3ac8:
  %0 = ptrtoint i32* %result to i32
  %1 = call i32 @_ZNSt11_Tuple_implILj0EJPiSt14default_deleteIiEEEC2Ev(i32* %result), !insn.addr !781
  ret i32 %0, !insn.addr !782
}

define i32 @function_3af8() local_unnamed_addr {
dec_label_pc_3af8:
  %0 = call i32 @__clang_call_terminate(), !insn.addr !783
  ret i32 %0, !insn.addr !783
}

define i32 @_ZNSt11_Tuple_implILj0EJPiSt14default_deleteIiEEEC2Ev(i32* %result) local_unnamed_addr {
dec_label_pc_3afc:
  %0 = ptrtoint i32* %result to i32
  %1 = call i32 @_ZNSt11_Tuple_implILj1EJSt14default_deleteIiEEEC2Ev(i32* %result), !insn.addr !784
  %2 = call i32 @_ZNSt10_Head_baseILj0EPiLb0EEC2Ev(i32* %result), !insn.addr !785
  ret i32 %0, !insn.addr !786
}

define i32 @_ZNSt11_Tuple_implILj1EJSt14default_deleteIiEEEC2Ev(i32* %result) local_unnamed_addr {
dec_label_pc_3b30:
  %0 = ptrtoint i32* %result to i32
  %1 = call i32 @_ZNSt10_Head_baseILj1ESt14default_deleteIiELb1EEC2Ev(i32* %result), !insn.addr !787
  ret i32 %0, !insn.addr !788
}

define i32 @_ZNSt10_Head_baseILj0EPiLb0EEC2Ev(i32* %result) local_unnamed_addr {
dec_label_pc_3b5c:
  %0 = ptrtoint i32* %result to i32
  store i32 0, i32* %result, align 4, !insn.addr !789
  ret i32 %0, !insn.addr !790

; uselistorder directives
  uselistorder i32 0, { 16, 6, 17, 13, 0, 18, 56, 19, 57, 2, 1, 59, 20, 4, 3, 60, 21, 61, 5, 11, 63, 7, 8, 50, 22, 51, 23, 52, 12, 54, 9, 53, 10, 55, 24, 25, 26, 58, 27, 28, 29, 30, 62, 14, 15, 64, 65, 31, 32, 33, 34, 35, 36, 37, 38, 39, 40, 41, 42, 43, 44, 45, 46, 47, 48, 49 }
}

define i32 @_ZNSt10_Head_baseILj1ESt14default_deleteIiELb1EEC2Ev(i32* %result) local_unnamed_addr {
dec_label_pc_3b78:
  %0 = ptrtoint i32* %result to i32
  ret i32 %0, !insn.addr !791
}

define i32 @_ZNSt10unique_ptrIiSt14default_deleteIiEE11get_deleterEv(i32* %result) local_unnamed_addr {
dec_label_pc_3b8c:
  %0 = call i32 @_ZNSt15__uniq_ptr_implIiSt14default_deleteIiEE10_M_deleterEv(i32* %result), !insn.addr !792
  ret i32 %0, !insn.addr !793
}

define i32 @function_3bbc() local_unnamed_addr {
dec_label_pc_3bbc:
  %0 = call i32 @__clang_call_terminate(), !insn.addr !794
  ret i32 %0, !insn.addr !794
}

define i32 @_ZNKSt14default_deleteIiEclEPi(i32* %result, i32* %arg2) local_unnamed_addr {
dec_label_pc_3bc0:
  %r0.0.reg2mem = alloca i32, !insn.addr !795
  %0 = ptrtoint i32* %arg2 to i32
  %1 = icmp eq i32* %arg2, null, !insn.addr !796
  store i32 %0, i32* %r0.0.reg2mem, !insn.addr !797
  br i1 %1, label %dec_label_pc_3bf4, label %dec_label_pc_3be8, !insn.addr !797

dec_label_pc_3be8:                                ; preds = %dec_label_pc_3bc0
  %2 = call i32 @function_dac(i32 %0, i32 %0), !insn.addr !798
  store i32 %2, i32* %r0.0.reg2mem, !insn.addr !799
  br label %dec_label_pc_3bf4, !insn.addr !799

dec_label_pc_3bf4:                                ; preds = %dec_label_pc_3be8, %dec_label_pc_3bc0
  %r0.0.reload = load i32, i32* %r0.0.reg2mem
  ret i32 %r0.0.reload, !insn.addr !800

; uselistorder directives
  uselistorder i32 %0, { 1, 2, 0 }
  uselistorder i32 (i32, i32)* @function_dac, { 1, 13, 12, 11, 10, 9, 8, 7, 6, 5, 4, 3, 2, 0 }
}

define i32* @_ZSt4moveIRPiEONSt16remove_referenceIT_E4typeEOS3_(i32*** %arg1) local_unnamed_addr {
dec_label_pc_3c00:
  %0 = bitcast i32*** %arg1 to i32*
  ret i32* %0, !insn.addr !801
}

define i32 @_ZNSt15__uniq_ptr_implIiSt14default_deleteIiEE10_M_deleterEv(i32* %result) local_unnamed_addr {
dec_label_pc_3c14:
  %0 = call i32* @_ZSt3getILj1EJPiSt14default_deleteIiEEERNSt13tuple_elementIXT_ESt5tupleIJDpT0_EEE4typeERS7_(i32* %result), !insn.addr !802
  %1 = ptrtoint i32* %0 to i32, !insn.addr !802
  ret i32 %1, !insn.addr !803
}

define i32* @_ZSt3getILj1EJPiSt14default_deleteIiEEERNSt13tuple_elementIXT_ESt5tupleIJDpT0_EEE4typeERS7_(i32* %arg1) local_unnamed_addr {
dec_label_pc_3c38:
  %0 = call i32* @_ZSt12__get_helperILj1ESt14default_deleteIiEJEERT0_RSt11_Tuple_implIXT_EJS2_DpT1_EE(i32* %arg1), !insn.addr !804
  ret i32* %0, !insn.addr !805
}

define i32* @_ZSt12__get_helperILj1ESt14default_deleteIiEJEERT0_RSt11_Tuple_implIXT_EJS2_DpT1_EE(i32* %arg1) local_unnamed_addr {
dec_label_pc_3c5c:
  %0 = call i32 @_ZNSt11_Tuple_implILj1EJSt14default_deleteIiEEE7_M_headERS2_(i32* %arg1), !insn.addr !806
  %1 = inttoptr i32 %0 to i32*, !insn.addr !807
  ret i32* %1, !insn.addr !807
}

define i32 @_ZNSt11_Tuple_implILj1EJSt14default_deleteIiEEE7_M_headERS2_(i32* %arg1) local_unnamed_addr {
dec_label_pc_3c80:
  %0 = call i32 @_ZNSt10_Head_baseILj1ESt14default_deleteIiELb1EE7_M_headERS2_(i32* %arg1), !insn.addr !808
  ret i32 %0, !insn.addr !809
}

define i32 @_ZNSt10_Head_baseILj1ESt14default_deleteIiELb1EE7_M_headERS2_(i32* %arg1) local_unnamed_addr {
dec_label_pc_3ca4:
  %0 = ptrtoint i32* %arg1 to i32
  ret i32 %0, !insn.addr !810
}

define i32 @_ZNKSt10unique_ptrIiSt14default_deleteIiEE3getEv(i32* %result) local_unnamed_addr {
dec_label_pc_3cb8:
  %0 = call i32 @_ZNKSt15__uniq_ptr_implIiSt14default_deleteIiEE6_M_ptrEv(i32* %result), !insn.addr !811
  ret i32 %0, !insn.addr !812
}

define i32 @function_3ce8() local_unnamed_addr {
dec_label_pc_3ce8:
  %0 = call i32 @__clang_call_terminate(), !insn.addr !813
  ret i32 %0, !insn.addr !813
}

define i32 @_ZNKSt15__uniq_ptr_implIiSt14default_deleteIiEE6_M_ptrEv(i32* %result) local_unnamed_addr {
dec_label_pc_3cec:
  %0 = call i32* @_ZSt3getILj0EJPiSt14default_deleteIiEEERKNSt13tuple_elementIXT_ESt5tupleIJDpT0_EEE4typeERKS7_(i32* %result), !insn.addr !814
  %1 = load i32, i32* %0, align 4, !insn.addr !815
  ret i32 %1, !insn.addr !816
}

define i32* @_ZSt3getILj0EJPiSt14default_deleteIiEEERKNSt13tuple_elementIXT_ESt5tupleIJDpT0_EEE4typeERKS7_(i32* %arg1) local_unnamed_addr {
dec_label_pc_3d14:
  %0 = call i32** @_ZSt12__get_helperILj0EPiJSt14default_deleteIiEEERKT0_RKSt11_Tuple_implIXT_EJS3_DpT1_EE(i32* %arg1), !insn.addr !817
  %1 = bitcast i32** %0 to i32*, !insn.addr !818
  ret i32* %1, !insn.addr !818
}

define i32** @_ZSt12__get_helperILj0EPiJSt14default_deleteIiEEERKT0_RKSt11_Tuple_implIXT_EJS3_DpT1_EE(i32* %arg1) local_unnamed_addr {
dec_label_pc_3d38:
  %0 = call i32 @_ZNSt11_Tuple_implILj0EJPiSt14default_deleteIiEEE7_M_headERKS3_(i32* %arg1), !insn.addr !819
  %1 = inttoptr i32 %0 to i32**, !insn.addr !820
  ret i32** %1, !insn.addr !820
}

define i32 @_ZNSt11_Tuple_implILj0EJPiSt14default_deleteIiEEE7_M_headERKS3_(i32* %arg1) local_unnamed_addr {
dec_label_pc_3d5c:
  %0 = call i32 @_ZNSt10_Head_baseILj0EPiLb0EE7_M_headERKS1_(i32* %arg1), !insn.addr !821
  ret i32 %0, !insn.addr !822
}

define i32 @_ZNSt10_Head_baseILj0EPiLb0EE7_M_headERKS1_(i32* %arg1) local_unnamed_addr {
dec_label_pc_3d80:
  %0 = ptrtoint i32* %arg1 to i32
  ret i32 %0, !insn.addr !823
}

define i32 @_ZNSt15__uniq_ptr_dataIiSt14default_deleteIA_iELb1ELb1EECI2St15__uniq_ptr_implIiS2_EEPi(i32* %result, i32* %arg2) local_unnamed_addr {
dec_label_pc_3d94:
  %0 = ptrtoint i32* %result to i32
  %1 = call i32 @_ZNSt15__uniq_ptr_implIiSt14default_deleteIA_iEEC2EPi(i32* %result, i32* %arg2), !insn.addr !824
  ret i32 %0, !insn.addr !825
}

define i32 @_ZNSt15__uniq_ptr_implIiSt14default_deleteIA_iEEC2EPi(i32* %result, i32* %arg2) local_unnamed_addr {
dec_label_pc_3dc8:
  %0 = ptrtoint i32* %arg2 to i32
  %1 = ptrtoint i32* %result to i32
  %2 = call i32 @_ZNSt5tupleIJPiSt14default_deleteIA_iEEEC2ILb1ELb1EEEv(i32* %result), !insn.addr !826
  %3 = call i32 @_ZNSt15__uniq_ptr_implIiSt14default_deleteIA_iEE6_M_ptrEv(i32* %result), !insn.addr !827
  %4 = inttoptr i32 %3 to i32*, !insn.addr !828
  store i32 %0, i32* %4, align 4, !insn.addr !828
  ret i32 %1, !insn.addr !829

; uselistorder directives
  uselistorder i32 (i32*)* @_ZNSt15__uniq_ptr_implIiSt14default_deleteIA_iEE6_M_ptrEv, { 1, 0 }
}

define i32 @_ZNSt5tupleIJPiSt14default_deleteIA_iEEEC2ILb1ELb1EEEv(i32* %result) local_unnamed_addr {
dec_label_pc_3e14:
  %0 = ptrtoint i32* %result to i32
  %1 = call i32 @_ZNSt11_Tuple_implILj0EJPiSt14default_deleteIA_iEEEC2Ev(i32* %result), !insn.addr !830
  ret i32 %0, !insn.addr !831
}

define i32 @function_3e44() local_unnamed_addr {
dec_label_pc_3e44:
  %0 = call i32 @__clang_call_terminate(), !insn.addr !832
  ret i32 %0, !insn.addr !832
}

define i32 @_ZNSt15__uniq_ptr_implIiSt14default_deleteIA_iEE6_M_ptrEv(i32* %result) local_unnamed_addr {
dec_label_pc_3e48:
  %0 = call i32* @_ZSt3getILj0EJPiSt14default_deleteIA_iEEERNSt13tuple_elementIXT_ESt5tupleIJDpT0_EEE4typeERS8_(i32* %result), !insn.addr !833
  %1 = ptrtoint i32* %0 to i32, !insn.addr !833
  ret i32 %1, !insn.addr !834
}

define i32 @_ZNSt11_Tuple_implILj0EJPiSt14default_deleteIA_iEEEC2Ev(i32* %result) local_unnamed_addr {
dec_label_pc_3e6c:
  %0 = ptrtoint i32* %result to i32
  %1 = call i32 @_ZNSt11_Tuple_implILj1EJSt14default_deleteIA_iEEEC2Ev(i32* %result), !insn.addr !835
  %2 = call i32 @_ZNSt10_Head_baseILj0EPiLb0EEC2Ev(i32* %result), !insn.addr !836
  ret i32 %0, !insn.addr !837

; uselistorder directives
  uselistorder i32 (i32*)* @_ZNSt10_Head_baseILj0EPiLb0EEC2Ev, { 1, 0 }
}

define i32 @_ZNSt11_Tuple_implILj1EJSt14default_deleteIA_iEEEC2Ev(i32* %result) local_unnamed_addr {
dec_label_pc_3ea0:
  %0 = ptrtoint i32* %result to i32
  %1 = call i32 @_ZNSt10_Head_baseILj1ESt14default_deleteIA_iELb1EEC2Ev(i32* %result), !insn.addr !838
  ret i32 %0, !insn.addr !839
}

define i32 @_ZNSt10_Head_baseILj1ESt14default_deleteIA_iELb1EEC2Ev(i32* %result) local_unnamed_addr {
dec_label_pc_3ecc:
  %0 = ptrtoint i32* %result to i32
  ret i32 %0, !insn.addr !840
}

define i32* @_ZSt3getILj0EJPiSt14default_deleteIA_iEEERNSt13tuple_elementIXT_ESt5tupleIJDpT0_EEE4typeERS8_(i32* %arg1) local_unnamed_addr {
dec_label_pc_3ee0:
  %0 = call i32** @_ZSt12__get_helperILj0EPiJSt14default_deleteIA_iEEERT0_RSt11_Tuple_implIXT_EJS4_DpT1_EE(i32* %arg1), !insn.addr !841
  %1 = bitcast i32** %0 to i32*, !insn.addr !842
  ret i32* %1, !insn.addr !842
}

define i32** @_ZSt12__get_helperILj0EPiJSt14default_deleteIA_iEEERT0_RSt11_Tuple_implIXT_EJS4_DpT1_EE(i32* %arg1) local_unnamed_addr {
dec_label_pc_3f04:
  %0 = call i32 @_ZNSt11_Tuple_implILj0EJPiSt14default_deleteIA_iEEE7_M_headERS4_(i32* %arg1), !insn.addr !843
  %1 = inttoptr i32 %0 to i32**, !insn.addr !844
  ret i32** %1, !insn.addr !844
}

define i32 @_ZNSt11_Tuple_implILj0EJPiSt14default_deleteIA_iEEE7_M_headERS4_(i32* %arg1) local_unnamed_addr {
dec_label_pc_3f28:
  %0 = call i32 @_ZNSt10_Head_baseILj0EPiLb0EE7_M_headERS1_(i32* %arg1), !insn.addr !845
  ret i32 %0, !insn.addr !846

; uselistorder directives
  uselistorder i32 (i32*)* @_ZNSt10_Head_baseILj0EPiLb0EE7_M_headERS1_, { 2, 1, 0 }
}

define i32 @_ZNSt10unique_ptrIA_iSt14default_deleteIS0_EE11get_deleterEv(i32* %result) local_unnamed_addr {
dec_label_pc_3f4c:
  %0 = call i32 @_ZNSt15__uniq_ptr_implIiSt14default_deleteIA_iEE10_M_deleterEv(i32* %result), !insn.addr !847
  ret i32 %0, !insn.addr !848
}

define i32 @function_3f7c() local_unnamed_addr {
dec_label_pc_3f7c:
  %0 = call i32 @__clang_call_terminate(), !insn.addr !849
  ret i32 %0, !insn.addr !849
}

define i32 @_ZNKSt14default_deleteIA_iEclIiEENSt9enable_ifIXsr14is_convertibleIPA_T_PS0_EE5valueEvE4typeEPS4_(i32* %result, i32* %arg2) local_unnamed_addr {
dec_label_pc_3f80:
  %r0.0.reg2mem = alloca i32, !insn.addr !850
  %0 = ptrtoint i32* %arg2 to i32
  %1 = icmp eq i32* %arg2, null, !insn.addr !851
  store i32 %0, i32* %r0.0.reg2mem, !insn.addr !852
  br i1 %1, label %dec_label_pc_3fb4, label %dec_label_pc_3fa8, !insn.addr !852

dec_label_pc_3fa8:                                ; preds = %dec_label_pc_3f80
  %2 = call i32 @function_de8(i32 %0), !insn.addr !853
  store i32 %2, i32* %r0.0.reg2mem, !insn.addr !854
  br label %dec_label_pc_3fb4, !insn.addr !854

dec_label_pc_3fb4:                                ; preds = %dec_label_pc_3fa8, %dec_label_pc_3f80
  %r0.0.reload = load i32, i32* %r0.0.reg2mem
  ret i32 %r0.0.reload, !insn.addr !855

; uselistorder directives
  uselistorder i32 %0, { 1, 0 }
  uselistorder i32 (i32)* @function_de8, { 1, 0 }
}

define i32 @_ZNSt15__uniq_ptr_implIiSt14default_deleteIA_iEE10_M_deleterEv(i32* %result) local_unnamed_addr {
dec_label_pc_3fc0:
  %0 = call i32* @_ZSt3getILj1EJPiSt14default_deleteIA_iEEERNSt13tuple_elementIXT_ESt5tupleIJDpT0_EEE4typeERS8_(i32* %result), !insn.addr !856
  %1 = ptrtoint i32* %0 to i32, !insn.addr !856
  ret i32 %1, !insn.addr !857
}

define i32* @_ZSt3getILj1EJPiSt14default_deleteIA_iEEERNSt13tuple_elementIXT_ESt5tupleIJDpT0_EEE4typeERS8_(i32* %arg1) local_unnamed_addr {
dec_label_pc_3fe4:
  %0 = call i32* @_ZSt12__get_helperILj1ESt14default_deleteIA_iEJEERT0_RSt11_Tuple_implIXT_EJS3_DpT1_EE(i32* %arg1), !insn.addr !858
  ret i32* %0, !insn.addr !859
}

define i32* @_ZSt12__get_helperILj1ESt14default_deleteIA_iEJEERT0_RSt11_Tuple_implIXT_EJS3_DpT1_EE(i32* %arg1) local_unnamed_addr {
dec_label_pc_4008:
  %0 = call i32 @_ZNSt11_Tuple_implILj1EJSt14default_deleteIA_iEEE7_M_headERS3_(i32* %arg1), !insn.addr !860
  %1 = inttoptr i32 %0 to i32*, !insn.addr !861
  ret i32* %1, !insn.addr !861
}

define i32 @_ZNSt11_Tuple_implILj1EJSt14default_deleteIA_iEEE7_M_headERS3_(i32* %arg1) local_unnamed_addr {
dec_label_pc_402c:
  %0 = call i32 @_ZNSt10_Head_baseILj1ESt14default_deleteIA_iELb1EE7_M_headERS3_(i32* %arg1), !insn.addr !862
  ret i32 %0, !insn.addr !863
}

define i32 @_ZNSt10_Head_baseILj1ESt14default_deleteIA_iELb1EE7_M_headERS3_(i32* %arg1) local_unnamed_addr {
dec_label_pc_4050:
  %0 = ptrtoint i32* %arg1 to i32
  ret i32 %0, !insn.addr !864
}

define i32 @_ZNKSt10unique_ptrIA_iSt14default_deleteIS0_EE3getEv(i32* %result) local_unnamed_addr {
dec_label_pc_4064:
  %0 = call i32 @_ZNKSt15__uniq_ptr_implIiSt14default_deleteIA_iEE6_M_ptrEv(i32* %result), !insn.addr !865
  ret i32 %0, !insn.addr !866
}

define i32 @function_4094() local_unnamed_addr {
dec_label_pc_4094:
  %0 = call i32 @__clang_call_terminate(), !insn.addr !867
  ret i32 %0, !insn.addr !867

; uselistorder directives
  uselistorder i32 ()* @__clang_call_terminate, { 15, 14, 13, 12, 11, 10, 9, 8, 7, 6, 5, 4, 3, 2, 1, 0 }
}

define i32 @_ZNKSt15__uniq_ptr_implIiSt14default_deleteIA_iEE6_M_ptrEv(i32* %result) local_unnamed_addr {
dec_label_pc_4098:
  %0 = call i32* @_ZSt3getILj0EJPiSt14default_deleteIA_iEEERKNSt13tuple_elementIXT_ESt5tupleIJDpT0_EEE4typeERKS8_(i32* %result), !insn.addr !868
  %1 = load i32, i32* %0, align 4, !insn.addr !869
  ret i32 %1, !insn.addr !870
}

define i32* @_ZSt3getILj0EJPiSt14default_deleteIA_iEEERKNSt13tuple_elementIXT_ESt5tupleIJDpT0_EEE4typeERKS8_(i32* %arg1) local_unnamed_addr {
dec_label_pc_40c0:
  %0 = call i32** @_ZSt12__get_helperILj0EPiJSt14default_deleteIA_iEEERKT0_RKSt11_Tuple_implIXT_EJS4_DpT1_EE(i32* %arg1), !insn.addr !871
  %1 = bitcast i32** %0 to i32*, !insn.addr !872
  ret i32* %1, !insn.addr !872
}

define i32** @_ZSt12__get_helperILj0EPiJSt14default_deleteIA_iEEERKT0_RKSt11_Tuple_implIXT_EJS4_DpT1_EE(i32* %arg1) local_unnamed_addr {
dec_label_pc_40e4:
  %0 = call i32 @_ZNSt11_Tuple_implILj0EJPiSt14default_deleteIA_iEEE7_M_headERKS4_(i32* %arg1), !insn.addr !873
  %1 = inttoptr i32 %0 to i32**, !insn.addr !874
  ret i32** %1, !insn.addr !874
}

define i32 @_ZNSt11_Tuple_implILj0EJPiSt14default_deleteIA_iEEE7_M_headERKS4_(i32* %arg1) local_unnamed_addr {
dec_label_pc_4108:
  %0 = call i32 @_ZNSt10_Head_baseILj0EPiLb0EE7_M_headERKS1_(i32* %arg1), !insn.addr !875
  ret i32 %0, !insn.addr !876

; uselistorder directives
  uselistorder i32 (i32*)* @_ZNSt10_Head_baseILj0EPiLb0EE7_M_headERKS1_, { 2, 1, 0 }
}

define i32*** @_ZSt7forwardIRPiEOT_RNSt16remove_referenceIS2_E4typeE(i32* %arg1) local_unnamed_addr {
dec_label_pc_412c:
  %0 = bitcast i32* %arg1 to i32***, !insn.addr !877
  ret i32*** %0, !insn.addr !877
}

define i32 @_ZNSt10_Head_baseILj0EPiLb0EEC2IRS0_EEOT_(i32* %result, i32*** %arg2) local_unnamed_addr {
dec_label_pc_4140:
  %0 = ptrtoint i32* %result to i32
  %1 = bitcast i32*** %arg2 to i32*, !insn.addr !878
  %2 = call i32*** @_ZSt7forwardIRPiEOT_RNSt16remove_referenceIS2_E4typeE(i32* %1), !insn.addr !878
  %3 = load i32**, i32*** %2, align 4, !insn.addr !879
  %4 = ptrtoint i32** %3 to i32, !insn.addr !879
  store i32 %4, i32* %result, align 4, !insn.addr !880
  ret i32 %0, !insn.addr !881

; uselistorder directives
  uselistorder i32*** (i32*)* @_ZSt7forwardIRPiEOT_RNSt16remove_referenceIS2_E4typeE, { 2, 1, 0 }
}

define i32 @_fini(i32 %arg1, i32 %arg2, i32 %arg3, i32 %arg4) local_unnamed_addr {
dec_label_pc_4180:
  ret i32 %arg1, !insn.addr !882
}

define i32 @function_14008() local_unnamed_addr {
dec_label_pc_14008:
  %0 = alloca i32
  %1 = load i32, i32* %0
  ret i32 %1
}

define i32 @function_14070() local_unnamed_addr {
dec_label_pc_14070:
  %0 = alloca i32
  %1 = load i32, i32* %0
  ret i32 %1
}

define i32 @function_14080() local_unnamed_addr {
dec_label_pc_14080:
  %0 = alloca i32
  %1 = load i32, i32* %0
  ret i32 %1
}

define i32 @function_140b0() local_unnamed_addr {
dec_label_pc_140b0:
  %0 = alloca i32
  %1 = load i32, i32* %0
  ret i32 %1
}

define i32 @function_e08f2002() local_unnamed_addr {
dec_label_pc_e08f2002:
  %0 = alloca i32
  %1 = load i32, i32* %0
  ret i32 %1
}

define i32 @function_e08f3003() local_unnamed_addr {
dec_label_pc_e08f3003:
  %0 = alloca i32
  %1 = load i32, i32* %0
  ret i32 %1
}

define i32 @function_e1a01000() local_unnamed_addr {
dec_label_pc_e1a01000:
  %0 = alloca i32
  %1 = load i32, i32* %0
  ret i32 %1
}

define i32 @function_e1a0b00d() local_unnamed_addr {
dec_label_pc_e1a0b00d:
  %0 = alloca i32
  %1 = load i32, i32* %0
  ret i32 %1
}

define i32 @function_e24dd038() local_unnamed_addr {
dec_label_pc_e24dd038:
  %0 = alloca i32
  %1 = load i32, i32* %0
  ret i32 %1
}

define i32 @function_e28d0014() local_unnamed_addr {
dec_label_pc_e28d0014:
  %0 = alloca i32
  %1 = load i32, i32* %0
  ret i32 %1
}

define i32 @function_e3a01005() local_unnamed_addr {
dec_label_pc_e3a01005:
  %0 = alloca i32
  %1 = load i32, i32* %0
  ret i32 %1
}

define i32 @function_e3a0100a() local_unnamed_addr {
dec_label_pc_e3a0100a:
  %0 = alloca i32
  %1 = load i32, i32* %0
  ret i32 %1
}

define i32 @function_e3a02001() local_unnamed_addr {
dec_label_pc_e3a02001:
  %0 = alloca i32
  %1 = load i32, i32* %0
  ret i32 %1
}

define i32 @function_e58d0004() local_unnamed_addr {
dec_label_pc_e58d0004:
  %0 = alloca i32
  %1 = load i32, i32* %0
  ret i32 %1
}

define i32 @function_e59d0004() local_unnamed_addr {
dec_label_pc_e59d0004:
  %0 = alloca i32
  %1 = load i32, i32* %0
  ret i32 %1
}

define i32 @function_e59f2064() local_unnamed_addr {
dec_label_pc_e59f2064:
  %0 = alloca i32
  %1 = load i32, i32* %0
  ret i32 %1
}

define i32 @function_e59f3018() local_unnamed_addr {
dec_label_pc_e59f3018:
  %0 = alloca i32
  %1 = load i32, i32* %0
  ret i32 %1
}

define i32 @function_e5c32000() local_unnamed_addr {
dec_label_pc_e5c32000:
  %0 = alloca i32
  %1 = load i32, i32* %0
  ret i32 %1
}

define i32 @function_e8bd8010() local_unnamed_addr {
dec_label_pc_e8bd8010:
  %0 = alloca i32
  %1 = load i32, i32* %0
  ret i32 %1
}

define i32 @function_e92d4800() local_unnamed_addr {
dec_label_pc_e92d4800:
  %0 = alloca i32
  %1 = load i32, i32* %0
  ret i32 %1
}

define i32 @function_eaffffd0() local_unnamed_addr {
dec_label_pc_eaffffd0:
  %0 = alloca i32
  %1 = load i32, i32* %0
  ret i32 %1
}

define i32 @function_eb0004f1() local_unnamed_addr {
dec_label_pc_eb0004f1:
  %0 = alloca i32
  %1 = load i32, i32* %0
  ret i32 %1
}

define i32 @function_eb0004f7() local_unnamed_addr {
dec_label_pc_eb0004f7:
  %0 = alloca i32
  %1 = load i32, i32* %0
  ret i32 %1

; uselistorder directives
  uselistorder i32 1, { 54, 53, 52, 51, 50, 49, 48, 47, 46, 45, 44, 43, 42, 41, 40, 39, 38, 37, 36, 35, 34, 33, 32, 55, 56, 31, 30, 68, 29, 28, 27, 26, 25, 24, 23, 22, 21, 20, 19, 57, 58, 59, 98, 60, 61, 99, 62, 18, 100, 101, 102, 63, 103, 104, 70, 64, 65, 74, 17, 67, 66, 16, 15, 14, 13, 12, 11, 10, 71, 79, 78, 77, 76, 75, 97, 9, 81, 80, 83, 82, 85, 84, 72, 88, 87, 86, 8, 7, 89, 6, 69, 91, 90, 5, 4, 3, 93, 92, 2, 94, 95, 1, 0, 96, 73 }
}

!0 = !{i64 3376}
!1 = !{i64 3380}
!2 = !{i64 3412}
!3 = !{i64 3424}
!4 = !{i64 3436}
!5 = !{i64 3448}
!6 = !{i64 3460}
!7 = !{i64 3472}
!8 = !{i64 3484}
!9 = !{i64 3496}
!10 = !{i64 3508}
!11 = !{i64 3520}
!12 = !{i64 3532}
!13 = !{i64 3544}
!14 = !{i64 3556}
!15 = !{i64 3568}
!16 = !{i64 3580}
!17 = !{i64 3592}
!18 = !{i64 3604}
!19 = !{i64 3616}
!20 = !{i64 3628}
!21 = !{i64 3652}
!22 = !{i64 3664}
!23 = !{i64 3676}
!24 = !{i64 3688}
!25 = !{i64 3700}
!26 = !{i64 3712}
!27 = !{i64 3740}
!28 = !{i64 3752}
!29 = !{i64 3764}
!30 = !{i64 3776}
!31 = !{i64 3800}
!32 = !{i64 3808}
!33 = !{i64 3864}
!34 = !{i64 3868}
!35 = !{i64 3892}
!36 = !{i64 3896}
!37 = !{i64 3900}
!38 = !{i64 3904}
!39 = !{i64 3944}
!40 = !{i64 4024}
!41 = !{i64 4076}
!42 = !{i64 4084}
!43 = !{i64 4088}
!44 = !{i64 4100}
!45 = !{i64 4104}
!46 = !{i64 4108}
!47 = !{i64 4116}
!48 = !{i64 4120}
!49 = !{i64 4124}
!50 = !{i64 4140}
!51 = !{i64 4144}
!52 = !{i64 4168}
!53 = !{i64 4204}
!54 = !{i64 4216}
!55 = !{i64 4224}
!56 = !{i64 4244}
!57 = !{i64 4252}
!58 = !{i64 4268}
!59 = !{i64 4276}
!60 = !{i64 4288}
!61 = !{i64 4328}
!62 = !{i64 4340}
!63 = !{i64 4368}
!64 = !{i64 4388}
!65 = !{i64 4400}
!66 = !{i64 4404}
!67 = !{i64 4420}
!68 = !{i64 4440}
!69 = !{i64 4452}
!70 = !{i64 4456}
!71 = !{i64 4464}
!72 = !{i64 4520}
!73 = !{i64 4540}
!74 = !{i64 4552}
!75 = !{i64 4568}
!76 = !{i64 4596}
!77 = !{i64 4640}
!78 = !{i64 4668}
!79 = !{i64 4696}
!80 = !{i64 4704}
!81 = !{i64 4712}
!82 = !{i64 4724}
!83 = !{i64 4732}
!84 = !{i64 4748}
!85 = !{i64 4752}
!86 = !{i64 4756}
!87 = !{i64 4760}
!88 = !{i64 4764}
!89 = !{i64 4768}
!90 = !{i64 4772}
!91 = !{i64 4776}
!92 = !{i64 4780}
!93 = !{i64 4784}
!94 = !{i64 4788}
!95 = !{i64 4796}
!96 = !{i64 4816}
!97 = !{i64 4820}
!98 = !{i64 4876}
!99 = !{i64 4992}
!100 = !{i64 5000}
!101 = !{i64 5012}
!102 = !{i64 5028}
!103 = !{i64 5040}
!104 = !{i64 5044}
!105 = !{i64 5052}
!106 = !{i64 5072}
!107 = !{i64 5076}
!108 = !{i64 5084}
!109 = !{i64 5088}
!110 = !{i64 5092}
!111 = !{i64 5100}
!112 = !{i64 5128}
!113 = !{i64 5136}
!114 = !{i64 5212}
!115 = !{i64 5260}
!116 = !{i64 5272}
!117 = !{i64 5288}
!118 = !{i64 5300}
!119 = !{i64 5304}
!120 = !{i64 5312}
!121 = !{i64 5344}
!122 = !{i64 5364}
!123 = !{i64 5384}
!124 = !{i64 5396}
!125 = !{i64 5412}
!126 = !{i64 5416}
!127 = !{i64 5424}
!128 = !{i64 5432}
!129 = !{i64 5436}
!130 = !{i64 5452}
!131 = !{i64 5476}
!132 = !{i64 5508}
!133 = !{i64 5524}
!134 = !{i64 5532}
!135 = !{i64 5544}
!136 = !{i64 5564}
!137 = !{i64 5576}
!138 = !{i64 5580}
!139 = !{i64 5584}
!140 = !{i64 5588}
!141 = !{i64 5592}
!142 = !{i64 5604}
!143 = !{i64 5628}
!144 = !{i64 5640}
!145 = !{i64 5652}
!146 = !{i64 5664}
!147 = !{i64 5680}
!148 = !{i64 5696}
!149 = !{i64 5708}
!150 = !{i64 5712}
!151 = !{i64 5728}
!152 = !{i64 5740}
!153 = !{i64 5760}
!154 = !{i64 5776}
!155 = !{i64 5788}
!156 = !{i64 5800}
!157 = !{i64 5852}
!158 = !{i64 5872}
!159 = !{i64 5892}
!160 = !{i64 5908}
!161 = !{i64 5920}
!162 = !{i64 5940}
!163 = !{i64 5944}
!164 = !{i64 5948}
!165 = !{i64 5952}
!166 = !{i64 5964}
!167 = !{i64 5968}
!168 = !{i64 5972}
!169 = !{i64 5980}
!170 = !{i64 6008}
!171 = !{i64 6016}
!172 = !{i64 6048}
!173 = !{i64 6060}
!174 = !{i64 6068}
!175 = !{i64 6072}
!176 = !{i64 6076}
!177 = !{i64 6080}
!178 = !{i64 6084}
!179 = !{i64 6096}
!180 = !{i64 6100}
!181 = !{i64 6108}
!182 = !{i64 6112}
!183 = !{i64 6116}
!184 = !{i64 6120}
!185 = !{i64 6128}
!186 = !{i64 6132}
!187 = !{i64 6136}
!188 = !{i64 6140}
!189 = !{i64 6144}
!190 = !{i64 6376}
!191 = !{i64 6404}
!192 = !{i64 6416}
!193 = !{i64 6428}
!194 = !{i64 6436}
!195 = !{i64 6456}
!196 = !{i64 6464}
!197 = !{i64 6480}
!198 = !{i64 6488}
!199 = !{i64 6504}
!200 = !{i64 6516}
!201 = !{i64 6536}
!202 = !{i64 6548}
!203 = !{i64 6556}
!204 = !{i64 6564}
!205 = !{i64 6572}
!206 = !{i64 6584}
!207 = !{i64 6596}
!208 = !{i64 6612}
!209 = !{i64 6624}
!210 = !{i64 6644}
!211 = !{i64 6660}
!212 = !{i64 6668}
!213 = !{i64 6684}
!214 = !{i64 6700}
!215 = !{i64 6708}
!216 = !{i64 6720}
!217 = !{i64 6728}
!218 = !{i64 6736}
!219 = !{i64 6744}
!220 = !{i64 6760}
!221 = !{i64 6764}
!222 = !{i64 6768}
!223 = !{i64 6772}
!224 = !{i64 6776}
!225 = !{i64 6780}
!226 = !{i64 6784}
!227 = !{i64 6788}
!228 = !{i64 6792}
!229 = !{i64 6796}
!230 = !{i64 6800}
!231 = !{i64 6804}
!232 = !{i64 6808}
!233 = !{i64 6812}
!234 = !{i64 6816}
!235 = !{i64 6820}
!236 = !{i64 6824}
!237 = !{i64 6828}
!238 = !{i64 6832}
!239 = !{i64 6836}
!240 = !{i64 6840}
!241 = !{i64 6844}
!242 = !{i64 6848}
!243 = !{i64 6856}
!244 = !{i64 6900}
!245 = !{i64 6920}
!246 = !{i64 6924}
!247 = !{i64 6964}
!248 = !{i64 6976}
!249 = !{i64 7008}
!250 = !{i64 7032}
!251 = !{i64 7036}
!252 = !{i64 7040}
!253 = !{i64 7024}
!254 = !{i64 7052}
!255 = !{i64 7064}
!256 = !{i64 7076}
!257 = !{i64 7080}
!258 = !{i64 7088}
!259 = !{i64 7100}
!260 = !{i64 7116}
!261 = !{i64 7120}
!262 = !{i64 7124}
!263 = !{i64 7144}
!264 = !{i64 7160}
!265 = !{i64 7164}
!266 = !{i64 7180}
!267 = !{i64 7192}
!268 = !{i64 7196}
!269 = !{i64 7224}
!270 = !{i64 7228}
!271 = !{i64 7236}
!272 = !{i64 7244}
!273 = !{i64 7248}
!274 = !{i64 7260}
!275 = !{i64 7300}
!276 = !{i64 7304}
!277 = !{i64 7312}
!278 = !{i64 7264}
!279 = !{i64 7320}
!280 = !{i64 7324}
!281 = !{i64 7336}
!282 = !{i64 7340}
!283 = !{i64 7380}
!284 = !{i64 7412}
!285 = !{i64 7448}
!286 = !{i64 7452}
!287 = !{i64 7464}
!288 = !{i64 7476}
!289 = !{i64 7484}
!290 = !{i64 7500}
!291 = !{i64 7532}
!292 = !{i64 7568}
!293 = !{i64 7572}
!294 = !{i64 7584}
!295 = !{i64 7596}
!296 = !{i64 7604}
!297 = !{i64 7620}
!298 = !{i64 7628}
!299 = !{i64 7636}
!300 = !{i64 7640}
!301 = !{i64 7644}
!302 = !{i64 7648}
!303 = !{i64 7660}
!304 = !{i64 7768}
!305 = !{i64 7812}
!306 = !{i64 7816}
!307 = !{i64 7832}
!308 = !{i64 7836}
!309 = !{i64 7852}
!310 = !{i64 7856}
!311 = !{i64 7872}
!312 = !{i64 7876}
!313 = !{i64 7892}
!314 = !{i64 7896}
!315 = !{i64 7912}
!316 = !{i64 7916}
!317 = !{i64 7932}
!318 = !{i64 7936}
!319 = !{i64 7952}
!320 = !{i64 7956}
!321 = !{i64 7972}
!322 = !{i64 7976}
!323 = !{i64 7992}
!324 = !{i64 7996}
!325 = !{i64 8012}
!326 = !{i64 8016}
!327 = !{i64 8032}
!328 = !{i64 8036}
!329 = !{i64 8052}
!330 = !{i64 8060}
!331 = !{i64 8140}
!332 = !{i64 8156}
!333 = !{i64 8200}
!334 = !{i64 8216}
!335 = !{i64 8236}
!336 = !{i64 8256}
!337 = !{i64 8272}
!338 = !{i64 8288}
!339 = !{i64 8308}
!340 = !{i64 8348}
!341 = !{i64 8360}
!342 = !{i64 8376}
!343 = !{i64 8396}
!344 = !{i64 8400}
!345 = !{i64 8440}
!346 = !{i64 8452}
!347 = !{i64 8460}
!348 = !{i64 8472}
!349 = !{i64 8488}
!350 = !{i64 8524}
!351 = !{i64 8540}
!352 = !{i64 8564}
!353 = !{i64 8588}
!354 = !{i64 8600}
!355 = !{i64 8624}
!356 = !{i64 8648}
!357 = !{i64 8652}
!358 = !{i64 8656}
!359 = !{i64 8684}
!360 = !{i64 8696}
!361 = !{i64 8700}
!362 = !{i64 8712}
!363 = !{i64 8716}
!364 = !{i64 8728}
!365 = !{i64 8752}
!366 = !{i64 8764}
!367 = !{i64 8788}
!368 = !{i64 8800}
!369 = !{i64 8824}
!370 = !{i64 8836}
!371 = !{i64 8860}
!372 = !{i64 8872}
!373 = !{i64 8896}
!374 = !{i64 8908}
!375 = !{i64 8932}
!376 = !{i64 8944}
!377 = !{i64 8968}
!378 = !{i64 8980}
!379 = !{i64 9000}
!380 = !{i64 9024}
!381 = !{i64 9048}
!382 = !{i64 9052}
!383 = !{i64 9076}
!384 = !{i64 9080}
!385 = !{i64 9092}
!386 = !{i64 9116}
!387 = !{i64 9128}
!388 = !{i64 9152}
!389 = !{i64 9164}
!390 = !{i64 9188}
!391 = !{i64 9200}
!392 = !{i64 9240}
!393 = !{i64 9244}
!394 = !{i64 9256}
!395 = !{i64 9268}
!396 = !{i64 9280}
!397 = !{i64 9304}
!398 = !{i64 9312}
!399 = !{i64 9336}
!400 = !{i64 9364}
!401 = !{i64 9380}
!402 = !{i64 9396}
!403 = !{i64 9408}
!404 = !{i64 9420}
!405 = !{i64 9424}
!406 = !{i64 9460}
!407 = !{i64 9472}
!408 = !{i64 9480}
!409 = !{i64 9484}
!410 = !{i64 9492}
!411 = !{i64 9500}
!412 = !{i64 9524}
!413 = !{i64 9528}
!414 = !{i64 9548}
!415 = !{i64 9556}
!416 = !{i64 9568}
!417 = !{i64 9592}
!418 = !{i64 9596}
!419 = !{i64 9600}
!420 = !{i64 9616}
!421 = !{i64 9628}
!422 = !{i64 9652}
!423 = !{i64 9656}
!424 = !{i64 9660}
!425 = !{i64 9680}
!426 = !{i64 9688}
!427 = !{i64 9712}
!428 = !{i64 9720}
!429 = !{i64 9724}
!430 = !{i64 9764}
!431 = !{i64 9768}
!432 = !{i64 9780}
!433 = !{i64 9784}
!434 = !{i64 9800}
!435 = !{i64 9804}
!436 = !{i64 9808}
!437 = !{i64 9824}
!438 = !{i64 9860}
!439 = !{i64 9868}
!440 = !{i64 9904}
!441 = !{i64 9924}
!442 = !{i64 9932}
!443 = !{i64 9944}
!444 = !{i64 9968}
!445 = !{i64 9976}
!446 = !{i64 10000}
!447 = !{i64 10004}
!448 = !{i64 10012}
!449 = !{i64 10040}
!450 = !{i64 10056}
!451 = !{i64 10076}
!452 = !{i64 10104}
!453 = !{i64 10112}
!454 = !{i64 10116}
!455 = !{i64 10136}
!456 = !{i64 10144}
!457 = !{i64 10156}
!458 = !{i64 10188}
!459 = !{i64 10192}
!460 = !{i64 10200}
!461 = !{i64 10216}
!462 = !{i64 10244}
!463 = !{i64 10248}
!464 = !{i64 10272}
!465 = !{i64 10284}
!466 = !{i64 10292}
!467 = !{i64 10312}
!468 = !{i64 10320}
!469 = !{i64 10328}
!470 = !{i64 10340}
!471 = !{i64 10384}
!472 = !{i64 10392}
!473 = !{i64 10396}
!474 = !{i64 10412}
!475 = !{i64 10444}
!476 = !{i64 10452}
!477 = !{i64 10460}
!478 = !{i64 10496}
!479 = !{i64 10504}
!480 = !{i64 10508}
!481 = !{i64 10512}
!482 = !{i64 10516}
!483 = !{i64 10528}
!484 = !{i64 10588}
!485 = !{i64 10596}
!486 = !{i64 10604}
!487 = !{i64 10608}
!488 = !{i64 10632}
!489 = !{i64 10652}
!490 = !{i64 10656}
!491 = !{i64 10660}
!492 = !{i64 10664}
!493 = !{i64 10668}
!494 = !{i64 10676}
!495 = !{i64 10704}
!496 = !{i64 10744}
!497 = !{i64 10792}
!498 = !{i64 10796}
!499 = !{i64 10864}
!500 = !{i64 10904}
!501 = !{i64 10916}
!502 = !{i64 10924}
!503 = !{i64 10944}
!504 = !{i64 10952}
!505 = !{i64 10956}
!506 = !{i64 10976}
!507 = !{i64 10984}
!508 = !{i64 11004}
!509 = !{i64 11008}
!510 = !{i64 11012}
!511 = !{i64 11016}
!512 = !{i64 11024}
!513 = !{i64 11028}
!514 = !{i64 11052}
!515 = !{i64 11056}
!516 = !{i64 11072}
!517 = !{i64 11080}
!518 = !{i64 11096}
!519 = !{i64 11104}
!520 = !{i64 11128}
!521 = !{i64 11144}
!522 = !{i64 11152}
!523 = !{i64 11172}
!524 = !{i64 11180}
!525 = !{i64 11184}
!526 = !{i64 11208}
!527 = !{i64 11216}
!528 = !{i64 11240}
!529 = !{i64 11244}
!530 = !{i64 11248}
!531 = !{i64 11252}
!532 = !{i64 11256}
!533 = !{i64 11264}
!534 = !{i64 11268}
!535 = !{i64 11292}
!536 = !{i64 11296}
!537 = !{i64 11312}
!538 = !{i64 11320}
!539 = !{i64 11336}
!540 = !{i64 11352}
!541 = !{i64 11384}
!542 = !{i64 11400}
!543 = !{i64 11408}
!544 = !{i64 11444}
!545 = !{i64 11464}
!546 = !{i64 11468}
!547 = !{i64 11508}
!548 = !{i64 11520}
!549 = !{i64 11540}
!550 = !{i64 11576}
!551 = !{i64 11592}
!552 = !{i64 11628}
!553 = !{i64 11648}
!554 = !{i64 11652}
!555 = !{i64 11696}
!556 = !{i64 11704}
!557 = !{i64 11716}
!558 = !{i64 11748}
!559 = !{i64 11760}
!560 = !{i64 11764}
!561 = !{i64 11768}
!562 = !{i64 11780}
!563 = !{i64 11788}
!564 = !{i64 11792}
!565 = !{i64 11800}
!566 = !{i64 11812}
!567 = !{i64 11828}
!568 = !{i64 11832}
!569 = !{i64 11864}
!570 = !{i64 11876}
!571 = !{i64 11880}
!572 = !{i64 11884}
!573 = !{i64 11868}
!574 = !{i64 11896}
!575 = !{i64 11908}
!576 = !{i64 11920}
!577 = !{i64 11924}
!578 = !{i64 11932}
!579 = !{i64 11944}
!580 = !{i64 11960}
!581 = !{i64 11964}
!582 = !{i64 11992}
!583 = !{i64 12012}
!584 = !{i64 12024}
!585 = !{i64 12056}
!586 = !{i64 12076}
!587 = !{i64 12088}
!588 = !{i64 12096}
!589 = !{i64 12124}
!590 = !{i64 12132}
!591 = !{i64 12140}
!592 = !{i64 12148}
!593 = !{i64 12164}
!594 = !{i64 12172}
!595 = !{i64 12180}
!596 = !{i64 12204}
!597 = !{i64 12208}
!598 = !{i64 12212}
!599 = !{i64 12220}
!600 = !{i64 12252}
!601 = !{i64 12272}
!602 = !{i64 12292}
!603 = !{i64 12312}
!604 = !{i64 12316}
!605 = !{i64 12320}
!606 = !{i64 12376}
!607 = !{i64 12400}
!608 = !{i64 12432}
!609 = !{i64 12440}
!610 = !{i64 12452}
!611 = !{i64 12476}
!612 = !{i64 12508}
!613 = !{i64 12516}
!614 = !{i64 12528}
!615 = !{i64 12556}
!616 = !{i64 12564}
!617 = !{i64 12596}
!618 = !{i64 12604}
!619 = !{i64 12628}
!620 = !{i64 12656}
!621 = !{i64 12664}
!622 = !{i64 12676}
!623 = !{i64 12696}
!624 = !{i64 12712}
!625 = !{i64 12720}
!626 = !{i64 12740}
!627 = !{i64 12748}
!628 = !{i64 12764}
!629 = !{i64 12772}
!630 = !{i64 12792}
!631 = !{i64 12812}
!632 = !{i64 12840}
!633 = !{i64 12848}
!634 = !{i64 12860}
!635 = !{i64 12880}
!636 = !{i64 12900}
!637 = !{i64 12928}
!638 = !{i64 12936}
!639 = !{i64 12948}
!640 = !{i64 12976}
!641 = !{i64 12984}
!642 = !{i64 13016}
!643 = !{i64 13020}
!644 = !{i64 13028}
!645 = !{i64 13032}
!646 = !{i64 13040}
!647 = !{i64 13068}
!648 = !{i64 13072}
!649 = !{i64 13080}
!650 = !{i64 13084}
!651 = !{i64 13092}
!652 = !{i64 13112}
!653 = !{i64 13116}
!654 = !{i64 13120}
!655 = !{i64 13124}
!656 = !{i64 13132}
!657 = !{i64 13168}
!658 = !{i64 13176}
!659 = !{i64 13180}
!660 = !{i64 13196}
!661 = !{i64 13228}
!662 = !{i64 13236}
!663 = !{i64 13248}
!664 = !{i64 13268}
!665 = !{i64 13272}
!666 = !{i64 13280}
!667 = !{i64 13304}
!668 = !{i64 13308}
!669 = !{i64 13316}
!670 = !{i64 13336}
!671 = !{i64 13340}
!672 = !{i64 13348}
!673 = !{i64 13368}
!674 = !{i64 13372}
!675 = !{i64 13376}
!676 = !{i64 13380}
!677 = !{i64 13388}
!678 = !{i64 13424}
!679 = !{i64 13432}
!680 = !{i64 13436}
!681 = !{i64 13452}
!682 = !{i64 13484}
!683 = !{i64 13492}
!684 = !{i64 13504}
!685 = !{i64 13524}
!686 = !{i64 13528}
!687 = !{i64 13536}
!688 = !{i64 13560}
!689 = !{i64 13564}
!690 = !{i64 13572}
!691 = !{i64 13592}
!692 = !{i64 13596}
!693 = !{i64 13604}
!694 = !{i64 13624}
!695 = !{i64 13628}
!696 = !{i64 13632}
!697 = !{i64 13636}
!698 = !{i64 13644}
!699 = !{i64 13672}
!700 = !{i64 13680}
!701 = !{i64 13692}
!702 = !{i64 13708}
!703 = !{i64 13716}
!704 = !{i64 13736}
!705 = !{i64 13744}
!706 = !{i64 13760}
!707 = !{i64 13768}
!708 = !{i64 13788}
!709 = !{i64 13792}
!710 = !{i64 13800}
!711 = !{i64 13824}
!712 = !{i64 13828}
!713 = !{i64 13836}
!714 = !{i64 13856}
!715 = !{i64 13860}
!716 = !{i64 13868}
!717 = !{i64 13888}
!718 = !{i64 13908}
!719 = !{i64 13936}
!720 = !{i64 13944}
!721 = !{i64 13956}
!722 = !{i64 13980}
!723 = !{i64 14004}
!724 = !{i64 14044}
!725 = !{i64 14048}
!726 = !{i64 14052}
!727 = !{i64 14064}
!728 = !{i64 14068}
!729 = !{i64 14084}
!730 = !{i64 14120}
!731 = !{i64 14136}
!732 = !{i64 14172}
!733 = !{i64 14184}
!734 = !{i64 14192}
!735 = !{i64 14216}
!736 = !{i64 14228}
!737 = !{i64 14232}
!738 = !{i64 14252}
!739 = !{i64 14288}
!740 = !{i64 14304}
!741 = !{i64 14328}
!742 = !{i64 14340}
!743 = !{i64 14344}
!744 = !{i64 14348}
!745 = !{i64 14384}
!746 = !{i64 14400}
!747 = !{i64 14412}
!748 = !{i64 14436}
!749 = !{i64 14460}
!750 = !{i64 14472}
!751 = !{i64 14496}
!752 = !{i64 14508}
!753 = !{i64 14532}
!754 = !{i64 14544}
!755 = !{i64 14564}
!756 = !{i64 14592}
!757 = !{i64 14600}
!758 = !{i64 14632}
!759 = !{i64 14648}
!760 = !{i64 14676}
!761 = !{i64 14684}
!762 = !{i64 14696}
!763 = !{i64 14716}
!764 = !{i64 14736}
!765 = !{i64 14764}
!766 = !{i64 14772}
!767 = !{i64 14784}
!768 = !{i64 14804}
!769 = !{i64 14832}
!770 = !{i64 14848}
!771 = !{i64 14876}
!772 = !{i64 14884}
!773 = !{i64 14896}
!774 = !{i64 14916}
!775 = !{i64 14952}
!776 = !{i64 14968}
!777 = !{i64 15000}
!778 = !{i64 15016}
!779 = !{i64 15032}
!780 = !{i64 15044}
!781 = !{i64 15072}
!782 = !{i64 15092}
!783 = !{i64 15096}
!784 = !{i64 15124}
!785 = !{i64 15132}
!786 = !{i64 15148}
!787 = !{i64 15176}
!788 = !{i64 15192}
!789 = !{i64 15212}
!790 = !{i64 15220}
!791 = !{i64 15240}
!792 = !{i64 15264}
!793 = !{i64 15288}
!794 = !{i64 15292}
!795 = !{i64 15296}
!796 = !{i64 15324}
!797 = !{i64 15328}
!798 = !{i64 15340}
!799 = !{i64 15344}
!800 = !{i64 15356}
!801 = !{i64 15376}
!802 = !{i64 15400}
!803 = !{i64 15412}
!804 = !{i64 15436}
!805 = !{i64 15448}
!806 = !{i64 15472}
!807 = !{i64 15484}
!808 = !{i64 15508}
!809 = !{i64 15520}
!810 = !{i64 15540}
!811 = !{i64 15564}
!812 = !{i64 15588}
!813 = !{i64 15592}
!814 = !{i64 15616}
!815 = !{i64 15620}
!816 = !{i64 15632}
!817 = !{i64 15656}
!818 = !{i64 15668}
!819 = !{i64 15692}
!820 = !{i64 15704}
!821 = !{i64 15728}
!822 = !{i64 15740}
!823 = !{i64 15760}
!824 = !{i64 15796}
!825 = !{i64 15812}
!826 = !{i64 15844}
!827 = !{i64 15860}
!828 = !{i64 15876}
!829 = !{i64 15888}
!830 = !{i64 15916}
!831 = !{i64 15936}
!832 = !{i64 15940}
!833 = !{i64 15964}
!834 = !{i64 15976}
!835 = !{i64 16004}
!836 = !{i64 16012}
!837 = !{i64 16028}
!838 = !{i64 16056}
!839 = !{i64 16072}
!840 = !{i64 16092}
!841 = !{i64 16116}
!842 = !{i64 16128}
!843 = !{i64 16152}
!844 = !{i64 16164}
!845 = !{i64 16188}
!846 = !{i64 16200}
!847 = !{i64 16224}
!848 = !{i64 16248}
!849 = !{i64 16252}
!850 = !{i64 16256}
!851 = !{i64 16284}
!852 = !{i64 16288}
!853 = !{i64 16300}
!854 = !{i64 16304}
!855 = !{i64 16316}
!856 = !{i64 16340}
!857 = !{i64 16352}
!858 = !{i64 16376}
!859 = !{i64 16388}
!860 = !{i64 16412}
!861 = !{i64 16424}
!862 = !{i64 16448}
!863 = !{i64 16460}
!864 = !{i64 16480}
!865 = !{i64 16504}
!866 = !{i64 16528}
!867 = !{i64 16532}
!868 = !{i64 16556}
!869 = !{i64 16560}
!870 = !{i64 16572}
!871 = !{i64 16596}
!872 = !{i64 16608}
!873 = !{i64 16632}
!874 = !{i64 16644}
!875 = !{i64 16668}
!876 = !{i64 16680}
!877 = !{i64 16700}
!878 = !{i64 16736}
!879 = !{i64 16748}
!880 = !{i64 16752}
!881 = !{i64 16764}
!882 = !{i64 16772}
