source_filename = "test"
target datalayout = "e-m:e-i64:64-i128:128-n32:64-S128"

%_Unwind_Exception = type { i32 }
%vtable_12c28_type = type { void (i64*)*, void (i64*)*, i64 ()* }
%vtable_12c50_type = type { void (i64*)*, void (i64*)*, i64 ()* }

@global_var_12f08 = local_unnamed_addr global i64 3760
@global_var_12f10 = local_unnamed_addr global i64 3760
@global_var_12f18 = local_unnamed_addr global i64 3760
@global_var_12f20 = local_unnamed_addr global i64 3760
@global_var_12f28 = local_unnamed_addr global i64 3760
@global_var_12f30 = local_unnamed_addr global i64 3760
@global_var_12f38 = local_unnamed_addr global i64 3760
@global_var_12f40 = local_unnamed_addr global i64 3760
@global_var_12f48 = local_unnamed_addr global i64 3760
@global_var_12f50 = local_unnamed_addr global i64 3760
@global_var_12f58 = local_unnamed_addr global i64 3760
@global_var_12f60 = local_unnamed_addr global i64 3760
@global_var_12f68 = local_unnamed_addr global i64 3760
@global_var_12f70 = local_unnamed_addr global i64 3760
@global_var_12f78 = local_unnamed_addr global i64 3760
@global_var_12f80 = local_unnamed_addr global i64 3760
@global_var_12f88 = local_unnamed_addr global i64 3760
@global_var_12f98 = local_unnamed_addr global i64 3760
@global_var_12fa0 = local_unnamed_addr global i64 3760
@global_var_12fa8 = local_unnamed_addr global i64 3760
@global_var_12fb0 = local_unnamed_addr global i64 3760
@global_var_12fc0 = local_unnamed_addr global i64 0
@global_var_10d0 = local_unnamed_addr constant [3 x i8] c"?\08\00"
@global_var_13000 = global i64 0
@global_var_13040 = global i64 0
@global_var_13008 = external local_unnamed_addr global i64
@global_var_12fd0 = local_unnamed_addr global i64 4384
@global_var_13030 = global i64 0
@global_var_12fd8 = local_unnamed_addr global i64 0
@global_var_1274 = local_unnamed_addr constant i64 4107496579118661664
@global_var_12fc8 = local_unnamed_addr global i64 0
@global_var_1b08 = constant [5 x i8] c"Test\00"
@global_var_3e8 = global i64 0
@global_var_1cc8 = constant [15 x i8] c"12RTTIDerivedA\00"
@global_var_1cd8 = constant [15 x i8] c"12RTTIDerivedB\00"
@global_var_12c48 = local_unnamed_addr global i64 76944
@global_var_12c90 = global i64 0
@global_var_12c98 = local_unnamed_addr global [15 x i8]* @global_var_1cd8
@global_var_1508 = local_unnamed_addr constant i64 1225069753408684096
@global_var_12c68 = global i64 0
@global_var_12c78 = global i64 0
@global_var_1af8 = constant [5 x i8] c"Base\00"
@global_var_1b00 = constant [8 x i8] c"Derived\00"
@0 = external global i32
@global_var_12ca8 = global %_Unwind_Exception* null
@global_var_13038 = local_unnamed_addr global i32 0
@global_var_28a = global i32 196608
@global_var_2bf = global i32 0
@1 = internal constant [36 x i8] c"=== \E6\B5\8B\E8\AF\95C++\E9\9D\A2\E5\90\91\E5\AF\B9\E8\B1\A1\E7\89\B9\E6\80\A7 ===\00"
@global_var_1b10 = constant i8* getelementptr inbounds ([36 x i8], [36 x i8]* @1, i64 0, i64 0)
@2 = internal constant [30 x i8] c"CPP-L3-01: %d (\E6\9C\9F\E6\9C\9B: 4704)\0A\00"
@global_var_1b38 = constant i8* getelementptr inbounds ([30 x i8], [30 x i8]* @2, i64 0, i64 0)
@3 = internal constant [28 x i8] c"CPP-L3-02: %d (\E6\9C\9F\E6\9C\9B: 21)\0A\00"
@global_var_1b58 = constant i8* getelementptr inbounds ([28 x i8], [28 x i8]* @3, i64 0, i64 0)
@4 = internal constant [28 x i8] c"CPP-L3-03: %d (\E6\9C\9F\E6\9C\9B: 42)\0A\00"
@global_var_1b78 = constant i8* getelementptr inbounds ([28 x i8], [28 x i8]* @4, i64 0, i64 0)
@5 = internal constant [28 x i8] c"CPP-L3-04: %d (\E6\9C\9F\E6\9C\9B: 71)\0A\00"
@global_var_1b98 = constant i8* getelementptr inbounds ([28 x i8], [28 x i8]* @5, i64 0, i64 0)
@6 = internal constant [29 x i8] c"CPP-L3-05: %d (\E6\9C\9F\E6\9C\9B: 650)\0A\00"
@global_var_1bb8 = constant i8* getelementptr inbounds ([29 x i8], [29 x i8]* @6, i64 0, i64 0)
@7 = internal constant [28 x i8] c"CPP-L3-06: %d (\E6\9C\9F\E6\9C\9B: 22)\0A\00"
@global_var_1bd8 = constant i8* getelementptr inbounds ([28 x i8], [28 x i8]* @7, i64 0, i64 0)
@8 = internal constant [28 x i8] c"CPP-L3-07: %d (\E6\9C\9F\E6\9C\9B: 39)\0A\00"
@global_var_1bf8 = constant i8* getelementptr inbounds ([28 x i8], [28 x i8]* @8, i64 0, i64 0)
@9 = internal constant [28 x i8] c"CPP-L3-08: %d (\E6\9C\9F\E6\9C\9B: 16)\0A\00"
@global_var_1c18 = constant i8* getelementptr inbounds ([28 x i8], [28 x i8]* @9, i64 0, i64 0)
@10 = internal constant [28 x i8] c"CPP-L3-09: %d (\E6\9C\9F\E6\9C\9B: 85)\0A\00"
@global_var_1c38 = constant i8* getelementptr inbounds ([28 x i8], [28 x i8]* @10, i64 0, i64 0)
@11 = internal constant [29 x i8] c"CPP-L4-01: %d (\E6\9C\9F\E6\9C\9B: 226)\0A\00"
@global_var_1c58 = constant i8* getelementptr inbounds ([29 x i8], [29 x i8]* @11, i64 0, i64 0)
@12 = internal constant [29 x i8] c"CPP-L4-02: %d (\E6\9C\9F\E6\9C\9B: 703)\0A\00"
@global_var_1c78 = constant i8* getelementptr inbounds ([29 x i8], [29 x i8]* @12, i64 0, i64 0)
@13 = internal constant [30 x i8] c"CPP-L4-03: %d (\E6\9C\9F\E6\9C\9B: 330+)\0A\00"
@global_var_1c98 = constant i8* getelementptr inbounds ([30 x i8], [30 x i8]* @13, i64 0, i64 0)
@global_var_12c28 = global %vtable_12c28_type { void (i64*)* @_ZN12RTTIDerivedAD2Ev, void (i64*)* @_ZN12RTTIDerivedAD0Ev, i64 ()* @_ZNK12RTTIDerivedA7getTypeEv }
@global_var_12c50 = global %vtable_12c50_type { void (i64*)* @_ZN12RTTIDerivedBD2Ev, void (i64*)* @_ZN12RTTIDerivedBD0Ev, i64 ()* @_ZNK12RTTIDerivedB7getTypeEv }

define i64 @_init(i64 %arg1) local_unnamed_addr {
dec_label_pc_e90:
  %0 = call i64 @call_weak_fn(), !insn.addr !0
  ret i64 %0, !insn.addr !1
}

define i32 @function_ed0(i8* %s) local_unnamed_addr {
dec_label_pc_ed0:
  %0 = call i32 @puts(i8* %s), !insn.addr !2
  ret i32 %0, !insn.addr !2
}

define i32 @function_ee0(i8* %s) local_unnamed_addr {
dec_label_pc_ee0:
  %0 = call i32 @strlen(i8* %s), !insn.addr !3
  ret i32 %0, !insn.addr !3
}

define void @function_ef0() local_unnamed_addr {
dec_label_pc_ef0:
  call void @__stack_chk_fail(), !insn.addr !4
  ret void, !insn.addr !4
}

define i64 @function_f00(i64 %arg1) local_unnamed_addr {
dec_label_pc_f00:
  %0 = call i64 @__cxa_begin_catch(i64 %arg1), !insn.addr !5
  ret i64 %0, !insn.addr !5
}

define i64 @function_f10(i64 %arg1) local_unnamed_addr {
dec_label_pc_f10:
  %0 = call i64 @__cxa_allocate_exception(i64 %arg1), !insn.addr !6
  ret i64 %0, !insn.addr !6
}

define void @function_f20(i64* %d) local_unnamed_addr {
dec_label_pc_f20:
  call void @__cxa_finalize(i64* %d), !insn.addr !7
  ret void, !insn.addr !7
}

define i32 @function_f30(i64 %main, i32 %argc, i8** %ubp_av, void ()* %init, void ()* %fini, void ()* %rtld_fini) local_unnamed_addr {
dec_label_pc_f30:
  %0 = call i32 @__libc_start_main(i64 %main, i32 %argc, i8** %ubp_av, void ()* %init, void ()* %fini, void ()* %rtld_fini), !insn.addr !8
  ret i32 %0, !insn.addr !8
}

define i64 @function_f40(i64 %arg1) local_unnamed_addr {
dec_label_pc_f40:
  %0 = call i64 @_Znwm(i64 %arg1), !insn.addr !9
  ret i64 %0, !insn.addr !9
}

define i64 @function_f50(i64* %arg1, i64 %arg2) local_unnamed_addr {
dec_label_pc_f50:
  %0 = call i64 @_ZdlPvm(i64* %arg1, i64 %arg2), !insn.addr !10
  ret i64 %0, !insn.addr !10
}

define i8* @function_f60(i8* %dest, i8* %src, i32 %n) local_unnamed_addr {
dec_label_pc_f60:
  %0 = call i8* @strncpy(i8* %dest, i8* %src, i32 %n), !insn.addr !11
  ret i8* %0, !insn.addr !11
}

define i64 @function_f70(i64 %arg1, i64 %arg2, i64* %arg3, i64 %arg4) local_unnamed_addr {
dec_label_pc_f70:
  %0 = call i64 @__dynamic_cast(i64 %arg1, i64 %arg2, i64* %arg3, i64 %arg4), !insn.addr !12
  ret i64 %0, !insn.addr !12
}

define i32 @function_f80(void (i64*)* %func, i64* %arg, i64* %dso_handle) local_unnamed_addr {
dec_label_pc_f80:
  %0 = call i32 @__cxa_atexit(void (i64*)* %func, i64* %arg, i64* %dso_handle), !insn.addr !13
  ret i32 %0, !insn.addr !13
}

define i32 @function_f90(i8* %s1, i8* %s2) local_unnamed_addr {
dec_label_pc_f90:
  %0 = call i32 @strcmp(i8* %s1, i8* %s2), !insn.addr !14
  ret i32 %0, !insn.addr !14
}

define i64 @function_fa0(i64 %arg1) local_unnamed_addr {
dec_label_pc_fa0:
  %0 = call i64 @__cxa_rethrow(i64 %arg1), !insn.addr !15
  ret i64 %0, !insn.addr !15
}

define i64 @function_fb0() local_unnamed_addr {
dec_label_pc_fb0:
  %0 = call i64 @_ZNSt8ios_base4InitC1Ev(), !insn.addr !16
  ret i64 %0, !insn.addr !16
}

define void @function_fc0() local_unnamed_addr {
dec_label_pc_fc0:
  call void @abort(), !insn.addr !17
  ret void, !insn.addr !17
}

define i64 @function_fd0(i64 %arg1) local_unnamed_addr {
dec_label_pc_fd0:
  %0 = call i64 @__cxa_end_catch(i64 %arg1), !insn.addr !18
  ret i64 %0, !insn.addr !18
}

define i64 @function_ff0(i64 %arg1, i64 %arg2, i64 %arg3, i64 %arg4) local_unnamed_addr {
dec_label_pc_ff0:
  %0 = call i64 @__cxa_throw(i64 %arg1, i64 %arg2, i64 %arg3, i64 %arg4), !insn.addr !19
  ret i64 %0, !insn.addr !19
}

define void @function_1000(%_Unwind_Exception* %object) local_unnamed_addr {
dec_label_pc_1000:
  call void @_Unwind_Resume(%_Unwind_Exception* %object), !insn.addr !20
  ret void, !insn.addr !20
}

define i32 @function_1010(i32 %flag, i8* %format, ...) local_unnamed_addr {
dec_label_pc_1010:
  %0 = call i32 (i32, i8*, ...) @__printf_chk(i32 %flag, i8* %format), !insn.addr !21
  ret i32 %0, !insn.addr !21
}

define i64 @function_1020(i64 %arg1) local_unnamed_addr {
dec_label_pc_1020:
  %0 = call i64 @__gmon_start__.11(i64 %arg1), !insn.addr !22
  ret i64 %0, !insn.addr !22
}

define i32 @_Z18test_cpp_exceptionv() local_unnamed_addr {
dec_label_pc_1040:
  %x20.3.in.reg2mem = alloca i64, !insn.addr !23
  %x20.2.reg2mem = alloca i64, !insn.addr !23
  %x0.2.reg2mem = alloca i64, !insn.addr !23
  %x20.1.reg2mem = alloca i64, !insn.addr !23
  %x0.1.reg2mem = alloca i64, !insn.addr !23
  %0 = call i64 @__cxa_allocate_exception(i64 4), !insn.addr !24
  %1 = inttoptr i64 %0 to i32*, !insn.addr !25
  store i32 42, i32* %1, align 4, !insn.addr !25
  %2 = load i64, i64* @global_var_12fc0, align 8, !insn.addr !26
  %3 = call i64 @__cxa_throw(i64 %0, i64 %2, i64 0, i64 42), !insn.addr !27
  %4 = icmp eq i64 %2, 1, !insn.addr !28
  store i64 %3, i64* %x0.1.reg2mem, !insn.addr !29
  br i1 %4, label %dec_label_pc_10a8, label %dec_label_pc_10e0, !insn.addr !29

dec_label_pc_10a8:                                ; preds = %dec_label_pc_1040
  %5 = call i64 @__cxa_begin_catch(i64 %3), !insn.addr !30
  %6 = inttoptr i64 %5 to i32*, !insn.addr !31
  %7 = load i32, i32* %6, align 4, !insn.addr !31
  %8 = call i64 @__cxa_rethrow(i64 %5), !insn.addr !32
  %9 = call i64 @__cxa_end_catch(i64 %8), !insn.addr !33
  %10 = call i64 @__cxa_begin_catch(i64 %8), !insn.addr !34
  %11 = inttoptr i64 %10 to i32*, !insn.addr !35
  %12 = load i32, i32* %11, align 4, !insn.addr !35
  %13 = call i64 @__cxa_end_catch(i64 %10), !insn.addr !36
  %14 = call i64 @__cxa_allocate_exception(i64 1), !insn.addr !37
  %15 = mul i32 %12, 2, !insn.addr !38
  %16 = add i32 %15, %7, !insn.addr !38
  %17 = zext i32 %16 to i64, !insn.addr !38
  %18 = call i64 @__cxa_throw(i64 %14, i64 ptrtoint (%_Unwind_Exception** @global_var_12ca8 to i64), i64 0, i64 42), !insn.addr !39
  store i64 %18, i64* %x0.2.reg2mem, !insn.addr !40
  store i64 %17, i64* %x20.2.reg2mem, !insn.addr !40
  br i1 icmp eq (i64 sub (i64 ptrtoint (%_Unwind_Exception** @global_var_12ca8 to i64), i64 2), i64 0), label %dec_label_pc_10e4, label %dec_label_pc_10d8, !insn.addr !40

dec_label_pc_10d8:                                ; preds = %dec_label_pc_10a8
  store i64 %18, i64* %x0.1.reg2mem, !insn.addr !41
  store i64 %17, i64* %x20.1.reg2mem, !insn.addr !41
  br i1 icmp eq (i64 ptrtoint (%_Unwind_Exception** @global_var_12ca8 to i64), i64 3), label %dec_label_pc_10f4, label %dec_label_pc_10e0, !insn.addr !41

dec_label_pc_10e0:                                ; preds = %dec_label_pc_1040, %dec_label_pc_10d8
  %x20.1.reload = load i64, i64* %x20.1.reg2mem
  %x0.1.reload = load i64, i64* %x0.1.reg2mem
  %19 = inttoptr i64 %x0.1.reload to %_Unwind_Exception*, !insn.addr !42
  call void @_Unwind_Resume(%_Unwind_Exception* %19), !insn.addr !42
  store i64 ptrtoint (i32* @0 to i64), i64* %x0.2.reg2mem, !insn.addr !42
  store i64 %x20.1.reload, i64* %x20.2.reg2mem, !insn.addr !42
  br label %dec_label_pc_10e4, !insn.addr !42

dec_label_pc_10e4:                                ; preds = %dec_label_pc_10e0, %dec_label_pc_10a8
  %x20.2.reload = load i64, i64* %x20.2.reg2mem
  %x0.2.reload = load i64, i64* %x0.2.reg2mem
  %20 = call i64 @__cxa_begin_catch(i64 %x0.2.reload), !insn.addr !43
  %21 = add i64 %x20.2.reload, 100, !insn.addr !44
  %22 = call i64 @__cxa_end_catch(i64 %20), !insn.addr !45
  store i64 %21, i64* %x20.3.in.reg2mem, !insn.addr !46
  br label %dec_label_pc_1100, !insn.addr !46

dec_label_pc_10f4:                                ; preds = %dec_label_pc_10d8
  %23 = call i64 @__cxa_begin_catch(i64 %18), !insn.addr !47
  %24 = add nuw nsw i64 %17, 200, !insn.addr !48
  %25 = call i64 @__cxa_end_catch(i64 %23), !insn.addr !49
  store i64 %24, i64* %x20.3.in.reg2mem, !insn.addr !49
  br label %dec_label_pc_1100, !insn.addr !49

dec_label_pc_1100:                                ; preds = %dec_label_pc_10f4, %dec_label_pc_10e4
  %x20.3.in.reload = load i64, i64* %x20.3.in.reg2mem
  %26 = trunc i64 %x20.3.in.reload to i32, !insn.addr !50
  ret i32 %26, !insn.addr !51

; uselistorder directives
  uselistorder i64 %18, { 2, 1, 0 }
  uselistorder i64 %17, { 2, 1, 0 }
  uselistorder i64 %10, { 1, 0 }
  uselistorder i64 %5, { 1, 0 }
  uselistorder i64 %3, { 1, 0 }
  uselistorder i64 %0, { 1, 0 }
  uselistorder i64* %x0.1.reg2mem, { 0, 2, 1 }
  uselistorder i64 (i64)* @__cxa_end_catch, { 3, 2, 1, 0, 4 }
  uselistorder i64 (i64)* @__cxa_begin_catch, { 3, 2, 1, 0, 4 }
  uselistorder i64 (i64, i64, i64, i64)* @__cxa_throw, { 1, 0, 2 }
  uselistorder i64 (i64)* @__cxa_allocate_exception, { 1, 0, 2 }
  uselistorder label %dec_label_pc_10e0, { 1, 0 }
}

define i32 @main() local_unnamed_addr {
dec_label_pc_1120:
  call void @_Z20test_cpp_oo_featuresv(), !insn.addr !52
  ret i32 0, !insn.addr !53
}

define void @_GLOBAL__sub_I__Z20test_cpp_member_funcv() local_unnamed_addr {
dec_label_pc_1140:
  %0 = call i64 @_ZNSt8ios_base4InitC1Ev(), !insn.addr !54
  %1 = load i64, i64* inttoptr (i64 77816 to i64*), align 8, !insn.addr !55
  %2 = inttoptr i64 %1 to void (i64*)*, !insn.addr !56
  %3 = call i32 @__cxa_atexit(void (i64*)* %2, i64* nonnull @global_var_13040, i64* inttoptr (i64 add (i64 ptrtoint (i64* @global_var_13000 to i64), i64 8) to i64*)), !insn.addr !56
  ret void, !insn.addr !56
}

define i64 @_start(i64 %arg1) local_unnamed_addr {
dec_label_pc_1180:
  %0 = alloca i64
  %1 = load i64, i64* %0
  %stack_var_8 = alloca i64, align 8
  %2 = load i64, i64* @global_var_12fd0, align 8, !insn.addr !57
  %3 = trunc i64 %arg1 to i32, !insn.addr !58
  %4 = bitcast i64* %stack_var_8 to i8**, !insn.addr !58
  %5 = inttoptr i64 %1 to void ()*, !insn.addr !58
  %6 = call i32 @__libc_start_main(i64 %2, i32 %3, i8** nonnull %4, void ()* null, void ()* null, void ()* %5), !insn.addr !58
  call void @abort(), !insn.addr !59
  ret i64 ptrtoint (i32* @0 to i64), !insn.addr !59

; uselistorder directives
  uselistorder i64 ptrtoint (i32* @0 to i64), { 1, 0 }
}

define i64 @call_weak_fn() local_unnamed_addr {
dec_label_pc_11b4:
  %0 = load i64, i64* inttoptr (i64 77800 to i64*), align 8, !insn.addr !60
  %1 = icmp eq i64 %0, 0, !insn.addr !61
  br i1 %1, label %dec_label_pc_11c4, label %dec_label_pc_11c0, !insn.addr !61

dec_label_pc_11c0:                                ; preds = %dec_label_pc_11b4
  %2 = call i64 @__gmon_start__.11(i64 %0), !insn.addr !62
  ret i64 %2, !insn.addr !62

dec_label_pc_11c4:                                ; preds = %dec_label_pc_11b4
  ret i64 0, !insn.addr !63
}

define i64 @deregister_tm_clones() local_unnamed_addr {
dec_label_pc_11d0:
  ret i64 ptrtoint (i64* @global_var_13030 to i64), !insn.addr !64
}

define i64 @register_tm_clones() local_unnamed_addr {
dec_label_pc_1200:
  ret i64 ptrtoint (i64* @global_var_13030 to i64), !insn.addr !65
}

define i64 @__do_global_dtors_aux() local_unnamed_addr {
dec_label_pc_1240:
  %x0.0.reg2mem = alloca i64, !insn.addr !66
  %0 = load i8, i8* bitcast (i64* @global_var_13030 to i8*), align 8, !insn.addr !67
  %1 = zext i8 %0 to i64, !insn.addr !67
  %2 = icmp eq i8 %0, 0, !insn.addr !68
  store i64 %1, i64* %x0.0.reg2mem, !insn.addr !68
  br i1 %2, label %dec_label_pc_1258, label %dec_label_pc_127c, !insn.addr !68

dec_label_pc_1258:                                ; preds = %dec_label_pc_1240
  %3 = load i64, i64* @global_var_12fd8, align 8, !insn.addr !69
  %4 = icmp eq i64 %3, 0, !insn.addr !70
  br i1 %4, label %dec_label_pc_1270, label %dec_label_pc_1264, !insn.addr !70

dec_label_pc_1264:                                ; preds = %dec_label_pc_1258
  %5 = load i64, i64* @global_var_13008, align 8, !insn.addr !71
  %6 = inttoptr i64 %5 to i64*, !insn.addr !72
  call void @__cxa_finalize(i64* %6), !insn.addr !72
  br label %dec_label_pc_1270, !insn.addr !72

dec_label_pc_1270:                                ; preds = %dec_label_pc_1264, %dec_label_pc_1258
  %7 = call i64 @deregister_tm_clones(), !insn.addr !73
  store i8 1, i8* bitcast (i64* @global_var_13030 to i8*), align 8, !insn.addr !74
  store i64 1, i64* %x0.0.reg2mem, !insn.addr !74
  br label %dec_label_pc_127c, !insn.addr !74

dec_label_pc_127c:                                ; preds = %dec_label_pc_1240, %dec_label_pc_1270
  %x0.0.reload = load i64, i64* %x0.0.reg2mem
  ret i64 %x0.0.reload, !insn.addr !75

; uselistorder directives
  uselistorder i64* %x0.0.reg2mem, { 0, 2, 1 }
  uselistorder label %dec_label_pc_127c, { 1, 0 }
}

define i64 @frame_dummy() local_unnamed_addr {
dec_label_pc_1290:
  %0 = call i64 @register_tm_clones(), !insn.addr !76
  ret i64 %0, !insn.addr !76
}

define void @_Z20test_cpp_member_funcv() local_unnamed_addr {
dec_label_pc_12a0:
  %stack_var_-36 = alloca i64, align 8
  %0 = load i64, i64* @global_var_12fc8, align 8, !insn.addr !77
  %1 = inttoptr i64 %0 to i64*, !insn.addr !78
  %2 = load i64, i64* %1, align 8, !insn.addr !78
  %3 = bitcast i64* %stack_var_-36 to i8*, !insn.addr !79
  %4 = call i8* @strncpy(i8* nonnull %3, i8* getelementptr inbounds ([5 x i8], [5 x i8]* @global_var_1b08, i64 0, i64 0), i32 31), !insn.addr !79
  %5 = call i32 @strlen(i8* %4), !insn.addr !80
  %6 = load i64, i64* @global_var_12fc8, align 8, !insn.addr !81
  %7 = inttoptr i64 %6 to i64*, !insn.addr !82
  %8 = load i64, i64* %7, align 8, !insn.addr !82
  %9 = icmp eq i64 %2, %8, !insn.addr !83
  br i1 %9, label %dec_label_pc_12f8, label %dec_label_pc_1308, !insn.addr !83

dec_label_pc_12f8:                                ; preds = %dec_label_pc_12a0
  ret void, !insn.addr !84

dec_label_pc_1308:                                ; preds = %dec_label_pc_12a0
  call void @__stack_chk_fail(), !insn.addr !85
  ret void, !insn.addr !86
}

define i32 @_Z20test_cpp_constructorv() local_unnamed_addr {
dec_label_pc_1310:
  %0 = load i32, i32* @global_var_13038, align 4, !insn.addr !87
  %1 = add i32 %0, 21, !insn.addr !88
  %2 = mul i32 %0, ptrtoint (i64* @global_var_3e8 to i32), !insn.addr !89
  %3 = add i32 %1, %2, !insn.addr !89
  ret i32 %3, !insn.addr !90
}

define void @_Z17call_virtual_funcP4Basei(i64* %arg1, i32 %arg2) local_unnamed_addr {
dec_label_pc_1330:
  ret void, !insn.addr !91
}

define void @_Z21test_cpp_virtual_funcv() local_unnamed_addr {
dec_label_pc_1340:
  ret void, !insn.addr !92
}

define void @_Z29test_cpp_multiple_inheritancev() local_unnamed_addr {
dec_label_pc_1350:
  ret void, !insn.addr !93
}

define i32 @_Z28test_cpp_diamond_inheritancev() local_unnamed_addr {
dec_label_pc_1360:
  ret i32 ptrtoint (i32* @global_var_28a to i32), !insn.addr !94
}

define void @_Z26test_cpp_operator_overloadv() local_unnamed_addr {
dec_label_pc_1370:
  ret void, !insn.addr !95
}

define i32 @_Z22test_cpp_template_funcv() local_unnamed_addr {
dec_label_pc_1380:
  %0 = alloca i128
  %1 = load i128, i128* %0
  %2 = load i128, i128* %0
  %stack_var_-4 = alloca i32, align 4
  %stack_var_-8 = alloca i32, align 4
  %3 = load i64, i64* @global_var_12fc8, align 8, !insn.addr !96
  %4 = inttoptr i64 %3 to i64*, !insn.addr !97
  %5 = load i64, i64* %4, align 8, !insn.addr !97
  %6 = call i32 @_Z12template_maxIiET_S0_S0_(i32 3, i32 7), !insn.addr !98
  %7 = trunc i128 %2 to i64, !insn.addr !99
  %8 = bitcast i64 %7 to double, !insn.addr !99
  %9 = trunc i128 %1 to i64, !insn.addr !99
  %10 = bitcast i64 %9 to double, !insn.addr !99
  %11 = call double @_Z12template_maxIdET_S0_S0_(double %8, double %10), !insn.addr !99
  store i32 10, i32* %stack_var_-8, align 4, !insn.addr !100
  store i32 20, i32* %stack_var_-4, align 4, !insn.addr !100
  call void @_Z13template_swapIiEvRT_S1_(i32* nonnull %stack_var_-8, i32* nonnull %stack_var_-4), !insn.addr !101
  %12 = load i64, i64* @global_var_12fc8, align 8, !insn.addr !102
  %13 = inttoptr i64 %12 to i64*, !insn.addr !103
  %14 = load i64, i64* %13, align 8, !insn.addr !103
  %15 = icmp eq i64 %5, %14, !insn.addr !104
  br i1 %15, label %dec_label_pc_140c, label %dec_label_pc_141c, !insn.addr !104

dec_label_pc_140c:                                ; preds = %dec_label_pc_1380
  %16 = add i32 %6, 2, !insn.addr !105
  %17 = load i32, i32* %stack_var_-8, align 4, !insn.addr !106
  %18 = add i32 %16, %17, !insn.addr !107
  %19 = load i32, i32* %stack_var_-4, align 4, !insn.addr !106
  %20 = add i32 %18, %19, !insn.addr !108
  ret i32 %20, !insn.addr !109

dec_label_pc_141c:                                ; preds = %dec_label_pc_1380
  call void @__stack_chk_fail(), !insn.addr !110
  ret i32 ptrtoint (i32* @0 to i32), !insn.addr !110

; uselistorder directives
  uselistorder i32* %stack_var_-8, { 1, 2, 0 }
  uselistorder i32* %stack_var_-4, { 1, 2, 0 }
  uselistorder i128* %0, { 1, 0 }
  uselistorder i32 2, { 1, 0 }
}

define void @_Z23test_cpp_template_classv() local_unnamed_addr {
dec_label_pc_1420:
  ret void, !insn.addr !111
}

define void @_Z15test_cpp_lambdav() local_unnamed_addr {
dec_label_pc_1430:
  ret void, !insn.addr !112
}

define i32 @_Z18test_cpp_smart_ptrv() local_unnamed_addr {
dec_label_pc_1440:
  ret i32 ptrtoint (i32* @global_var_2bf to i32), !insn.addr !113
}

define i32 @_Z13test_cpp_rttiv() local_unnamed_addr {
dec_label_pc_1450:
  %0 = call i64 @_Znwm(i64 8), !insn.addr !114
  %1 = inttoptr i64 %0 to i64*, !insn.addr !115
  store i64 ptrtoint (%vtable_12c28_type* @global_var_12c28 to i64), i64* %1, align 8, !insn.addr !115
  %2 = call i64 @_Znwm(i64 8), !insn.addr !116
  %3 = load i64, i64* %1, align 8, !insn.addr !117
  %4 = add i64 %3, -8, !insn.addr !118
  %5 = inttoptr i64 %4 to i64*, !insn.addr !118
  %6 = load i64, i64* %5, align 8, !insn.addr !118
  %7 = add i64 %6, 8, !insn.addr !119
  %8 = inttoptr i64 %7 to i64*, !insn.addr !119
  %9 = load i64, i64* %8, align 8, !insn.addr !119
  %10 = inttoptr i64 %2 to i64*, !insn.addr !120
  store i64 ptrtoint (%vtable_12c50_type* @global_var_12c50 to i64), i64* %10, align 8, !insn.addr !120
  %11 = inttoptr i64 %9 to i8*, !insn.addr !121
  %12 = load i8, i8* %11, align 1, !insn.addr !121
  %13 = icmp eq i64 %9, ptrtoint ([15 x i8]* @global_var_1cc8 to i64), !insn.addr !122
  %14 = icmp eq i8 %12, 42, !insn.addr !123
  %or.cond = or i1 %13, %14
  br i1 %or.cond, label %dec_label_pc_14dc, label %dec_label_pc_14c8, !insn.addr !124

dec_label_pc_14c8:                                ; preds = %dec_label_pc_1450
  %15 = call i32 @strcmp(i8* %11, i8* getelementptr inbounds ([15 x i8], [15 x i8]* @global_var_1cc8, i64 0, i64 0)), !insn.addr !125
  br label %dec_label_pc_14dc, !insn.addr !126

dec_label_pc_14dc:                                ; preds = %dec_label_pc_14c8, %dec_label_pc_1450
  %16 = load [15 x i8]*, [15 x i8]** @global_var_12c98, align 8, !insn.addr !127
  %17 = icmp eq [15 x i8]* %16, @global_var_1cd8, !insn.addr !128
  %18 = ptrtoint [15 x i8]* %16 to i64
  %19 = trunc i64 %18 to i8
  %20 = icmp eq i8 %19, 42, !insn.addr !129
  %or.cond2 = or i1 %17, %20
  br i1 %or.cond2, label %dec_label_pc_1510, label %dec_label_pc_1504, !insn.addr !130

dec_label_pc_1504:                                ; preds = %dec_label_pc_14dc
  %21 = getelementptr inbounds [15 x i8], [15 x i8]* %16, i64 0, i64 0, !insn.addr !131
  %22 = call i32 @strcmp(i8* %21, i8* getelementptr inbounds ([15 x i8], [15 x i8]* @global_var_1cd8, i64 0, i64 0)), !insn.addr !131
  br label %dec_label_pc_1510

dec_label_pc_1510:                                ; preds = %dec_label_pc_1504, %dec_label_pc_14dc
  %23 = call i64 @__dynamic_cast(i64 %0, i64 ptrtoint (i64* @global_var_12c68 to i64), i64* nonnull @global_var_12c78, i64 0), !insn.addr !132
  %24 = call i64 @__dynamic_cast(i64 %2, i64 ptrtoint (i64* @global_var_12c68 to i64), i64* nonnull @global_var_12c90, i64 0), !insn.addr !133
  %25 = zext i1 %14 to i64
  %storemerge = add i64 %9, %25
  %26 = inttoptr i64 %storemerge to i8*, !insn.addr !134
  %27 = call i32 @strlen(i8* %26), !insn.addr !134
  %28 = trunc i64 %0 to i32, !insn.addr !135
  ret i32 %28, !insn.addr !135

; uselistorder directives
  uselistorder [15 x i8]* %16, { 1, 0, 2 }
  uselistorder i64 (i64, i64, i64*, i64)* @__dynamic_cast, { 1, 0, 2 }
  uselistorder i32 (i8*, i8*)* @strcmp, { 1, 0, 2 }
  uselistorder i64 (i64)* @_Znwm, { 1, 0, 2 }
}

define i64 @function_157c() local_unnamed_addr {
dec_label_pc_157c:
  %0 = alloca i64
  %1 = load i64, i64* %0
  ret i64 %1, !insn.addr !136
}

define i64 @function_158c(i64 %arg1, i64 %arg2, i64 %arg3, i64 %arg4, i64 %arg5, i64 %arg6, i64 %arg7, i64 %arg8, i64 %arg9) local_unnamed_addr {
dec_label_pc_158c:
  %0 = alloca i64
  %1 = load i64, i64* %0
  %2 = and i64 %1, 4294967295, !insn.addr !137
  ret i64 %2, !insn.addr !138
}

define void @_Z20test_cpp_oo_featuresv() local_unnamed_addr {
dec_label_pc_15b0:
  %stack_var_-36 = alloca i64, align 8
  %0 = load i64, i64* @global_var_12fc8, align 8, !insn.addr !139
  %1 = inttoptr i64 %0 to i64*, !insn.addr !140
  %2 = load i64, i64* %1, align 8, !insn.addr !140
  %3 = call i32 @puts(i8* bitcast (i8** @global_var_1b10 to i8*)), !insn.addr !141
  %4 = bitcast i64* %stack_var_-36 to i8*, !insn.addr !142
  %5 = call i8* @strncpy(i8* nonnull %4, i8* getelementptr inbounds ([5 x i8], [5 x i8]* @global_var_1b08, i64 0, i64 0), i32 31), !insn.addr !142
  %6 = call i32 @strlen(i8* nonnull %4), !insn.addr !143
  %7 = call i32 (i32, i8*, ...) @__printf_chk(i32 1, i8* bitcast (i8** @global_var_1b38 to i8*)), !insn.addr !144
  %8 = call i32 @_Z20test_cpp_constructorv(), !insn.addr !145
  %9 = call i32 (i32, i8*, ...) @__printf_chk(i32 1, i8* bitcast (i8** @global_var_1b58 to i8*)), !insn.addr !146
  %10 = call i32 (i32, i8*, ...) @__printf_chk(i32 1, i8* bitcast (i8** @global_var_1b78 to i8*)), !insn.addr !147
  %11 = call i32 (i32, i8*, ...) @__printf_chk(i32 1, i8* bitcast (i8** @global_var_1b98 to i8*)), !insn.addr !148
  %12 = call i32 @_Z28test_cpp_diamond_inheritancev(), !insn.addr !149
  %13 = call i32 (i32, i8*, ...) @__printf_chk(i32 1, i8* bitcast (i8** @global_var_1bb8 to i8*)), !insn.addr !150
  %14 = call i32 (i32, i8*, ...) @__printf_chk(i32 1, i8* bitcast (i8** @global_var_1bd8 to i8*)), !insn.addr !151
  %15 = call i32 @_Z22test_cpp_template_funcv(), !insn.addr !152
  %16 = call i32 (i32, i8*, ...) @__printf_chk(i32 1, i8* bitcast (i8** @global_var_1bf8 to i8*)), !insn.addr !153
  %17 = call i32 (i32, i8*, ...) @__printf_chk(i32 1, i8* bitcast (i8** @global_var_1c18 to i8*)), !insn.addr !154
  %18 = call i32 (i32, i8*, ...) @__printf_chk(i32 1, i8* bitcast (i8** @global_var_1c38 to i8*)), !insn.addr !155
  %19 = call i32 @_Z18test_cpp_exceptionv(), !insn.addr !156
  %20 = call i32 (i32, i8*, ...) @__printf_chk(i32 1, i8* bitcast (i8** @global_var_1c58 to i8*)), !insn.addr !157
  %21 = call i32 @_Z18test_cpp_smart_ptrv(), !insn.addr !158
  %22 = call i32 (i32, i8*, ...) @__printf_chk(i32 1, i8* bitcast (i8** @global_var_1c78 to i8*)), !insn.addr !159
  %23 = call i32 @_Z13test_cpp_rttiv(), !insn.addr !160
  %24 = load i64, i64* @global_var_12fc8, align 8, !insn.addr !161
  %25 = inttoptr i64 %24 to i64*, !insn.addr !162
  %26 = load i64, i64* %25, align 8, !insn.addr !162
  %27 = icmp eq i64 %2, %26, !insn.addr !163
  br i1 %27, label %dec_label_pc_1718, label %dec_label_pc_1730, !insn.addr !163

dec_label_pc_1718:                                ; preds = %dec_label_pc_15b0
  %28 = call i32 (i32, i8*, ...) @__printf_chk(i32 1, i8* bitcast (i8** @global_var_1c98 to i8*)), !insn.addr !164
  ret void, !insn.addr !164

dec_label_pc_1730:                                ; preds = %dec_label_pc_15b0
  call void @__stack_chk_fail(), !insn.addr !165
  ret void, !insn.addr !166

; uselistorder directives
  uselistorder i32 (i32, i8*, ...)* @__printf_chk, { 11, 10, 9, 8, 7, 6, 5, 4, 3, 2, 1, 0, 12 }
  uselistorder i64 0, { 36, 37, 3, 4, 1, 2, 5, 6, 33, 34, 50, 0, 51, 35, 38, 39, 7, 8, 9, 10, 11, 12, 13, 14, 15, 16, 17, 18, 19, 20, 21, 22, 23, 24, 25, 26, 27, 28, 29, 30, 31, 32, 40, 41, 42, 43, 44, 45, 46, 47, 48, 49 }
}

define void @_ZN4Base12virtual_funcEi(i64* %result, i32 %arg2) local_unnamed_addr {
dec_label_pc_1740:
  ret void, !insn.addr !167
}

define i64 @_ZNK4Base7getNameEv() local_unnamed_addr {
dec_label_pc_1750:
  ret i64 ptrtoint ([5 x i8]* @global_var_1af8 to i64), !insn.addr !168
}

define void @_ZN4BaseD2Ev(i64* %result) local_unnamed_addr {
dec_label_pc_1760:
  ret void, !insn.addr !169
}

define void @_ZN7Derived12virtual_funcEi(i64* %result, i32 %arg2) local_unnamed_addr {
dec_label_pc_1770:
  ret void, !insn.addr !170
}

define i64 @_ZNK7Derived7getNameEv() local_unnamed_addr {
dec_label_pc_1780:
  ret i64 ptrtoint ([8 x i8]* @global_var_1b00 to i64), !insn.addr !171
}

define void @_ZN12MultiDerived5funcAEv(i64* %result) local_unnamed_addr {
dec_label_pc_1790:
  ret void, !insn.addr !172
}

define void @_ZN12MultiDerived5funcBEv(i64* %result) local_unnamed_addr {
dec_label_pc_17a0:
  ret void, !insn.addr !173
}

define i64 @_ZThn16_N12MultiDerived5funcBEv() local_unnamed_addr {
dec_label_pc_17b0:
  ret i64 40, !insn.addr !174
}

define void @_ZN7MiddleA4funcEv(i64* %result) local_unnamed_addr {
dec_label_pc_17c0:
  ret void, !insn.addr !175
}

define i64 @_ZTv0_n24_N7MiddleA4funcEv() local_unnamed_addr {
dec_label_pc_17e0:
  %0 = alloca i64
  %1 = load i64, i64* %0
  %2 = add i64 %1, -24, !insn.addr !176
  %3 = inttoptr i64 %2 to i64*, !insn.addr !176
  %4 = load i64, i64* %3, align 8, !insn.addr !176
  %5 = add i64 %4, %1, !insn.addr !177
  %6 = inttoptr i64 %5 to i64*, !insn.addr !178
  %7 = load i64, i64* %6, align 8, !insn.addr !178
  %8 = add i64 %7, -24, !insn.addr !179
  %9 = inttoptr i64 %8 to i64*, !insn.addr !179
  %10 = load i64, i64* %9, align 8, !insn.addr !179
  %11 = add i64 %5, 8, !insn.addr !180
  %12 = add i64 %11, %10, !insn.addr !181
  %13 = inttoptr i64 %12 to i32*, !insn.addr !181
  %14 = load i32, i32* %13, align 4, !insn.addr !181
  %15 = add i32 %14, 150, !insn.addr !182
  %16 = zext i32 %15 to i64, !insn.addr !182
  ret i64 %16, !insn.addr !183

; uselistorder directives
  uselistorder i64 %5, { 1, 0 }
  uselistorder i64 %1, { 1, 0 }
}

define void @_ZN7MiddleB4funcEv(i64* %result) local_unnamed_addr {
dec_label_pc_1810:
  ret void, !insn.addr !184
}

define i64 @_ZTv0_n24_N7MiddleB4funcEv() local_unnamed_addr {
dec_label_pc_1830:
  %0 = alloca i64
  %1 = load i64, i64* %0
  %2 = add i64 %1, -24, !insn.addr !185
  %3 = inttoptr i64 %2 to i64*, !insn.addr !185
  %4 = load i64, i64* %3, align 8, !insn.addr !185
  %5 = add i64 %4, %1, !insn.addr !186
  %6 = inttoptr i64 %5 to i64*, !insn.addr !187
  %7 = load i64, i64* %6, align 8, !insn.addr !187
  %8 = add i64 %7, -24, !insn.addr !188
  %9 = inttoptr i64 %8 to i64*, !insn.addr !188
  %10 = load i64, i64* %9, align 8, !insn.addr !188
  %11 = add i64 %5, 8, !insn.addr !189
  %12 = add i64 %11, %10, !insn.addr !190
  %13 = inttoptr i64 %12 to i32*, !insn.addr !190
  %14 = load i32, i32* %13, align 4, !insn.addr !190
  %15 = add i32 %14, 200, !insn.addr !191
  %16 = zext i32 %15 to i64, !insn.addr !191
  ret i64 %16, !insn.addr !192

; uselistorder directives
  uselistorder i64 %5, { 1, 0 }
  uselistorder i64 %1, { 1, 0 }
}

define void @_ZN14DiamondDerived4funcEv(i64* %result) local_unnamed_addr {
dec_label_pc_1860:
  ret void, !insn.addr !193
}

define i64 @_ZTv0_n24_N14DiamondDerived4funcEv() local_unnamed_addr {
dec_label_pc_1880:
  %0 = alloca i64
  %1 = load i64, i64* %0
  %2 = add i64 %1, -24, !insn.addr !194
  %3 = inttoptr i64 %2 to i64*, !insn.addr !194
  %4 = load i64, i64* %3, align 8, !insn.addr !194
  %5 = add i64 %4, %1, !insn.addr !195
  %6 = inttoptr i64 %5 to i64*, !insn.addr !196
  %7 = load i64, i64* %6, align 8, !insn.addr !196
  %8 = add i64 %7, -24, !insn.addr !197
  %9 = inttoptr i64 %8 to i64*, !insn.addr !197
  %10 = load i64, i64* %9, align 8, !insn.addr !197
  %11 = add i64 %5, 8, !insn.addr !198
  %12 = add i64 %11, %10, !insn.addr !199
  %13 = inttoptr i64 %12 to i32*, !insn.addr !199
  %14 = load i32, i32* %13, align 4, !insn.addr !199
  %15 = add i32 %14, 250, !insn.addr !200
  %16 = zext i32 %15 to i64, !insn.addr !200
  ret i64 %16, !insn.addr !201

; uselistorder directives
  uselistorder i64 %5, { 1, 0 }
  uselistorder i64 %1, { 1, 0 }
}

define i64 @_ZThn16_N14DiamondDerived4funcEv() local_unnamed_addr {
dec_label_pc_18a4:
  %0 = alloca i64
  %1 = load i64, i64* %0
  %2 = add i64 %1, -16, !insn.addr !202
  %3 = inttoptr i64 %2 to i64*, !insn.addr !202
  %4 = load i64, i64* %3, align 8, !insn.addr !202
  %5 = add i64 %4, -24, !insn.addr !203
  %6 = inttoptr i64 %5 to i64*, !insn.addr !203
  %7 = load i64, i64* %6, align 8, !insn.addr !203
  %8 = add i64 %1, -8, !insn.addr !204
  %9 = add i64 %8, %7, !insn.addr !205
  %10 = inttoptr i64 %9 to i32*, !insn.addr !205
  %11 = load i32, i32* %10, align 4, !insn.addr !205
  %12 = add i32 %11, 250, !insn.addr !206
  %13 = zext i32 %12 to i64, !insn.addr !206
  ret i64 %13, !insn.addr !207

; uselistorder directives
  uselistorder i64 %1, { 1, 0 }
}

define i64 @_ZNK12RTTIDerivedA7getTypeEv() {
dec_label_pc_18c0:
  ret i64 1, !insn.addr !208

; uselistorder directives
  uselistorder i64 1, { 1, 0, 2, 3 }
}

define i64 @_ZNK12RTTIDerivedB7getTypeEv() {
dec_label_pc_18d0:
  ret i64 2, !insn.addr !209
}

define void @_ZN12RTTIDerivedBD2Ev(i64* %result) {
dec_label_pc_18e0:
  ret void, !insn.addr !210
}

define void @_ZN12RTTIDerivedAD2Ev(i64* %result) {
dec_label_pc_18f0:
  ret void, !insn.addr !211
}

define void @_ZN14DiamondDerivedD1Ev(i64* %result) local_unnamed_addr {
dec_label_pc_1900:
  ret void, !insn.addr !212
}

define i64 @_ZTv0_n32_N14DiamondDerivedD1Ev() local_unnamed_addr {
dec_label_pc_1904:
  %0 = alloca i64
  %1 = load i64, i64* %0
  ret i64 %1, !insn.addr !213
}

define i64 @_ZThn16_N14DiamondDerivedD1Ev() local_unnamed_addr {
dec_label_pc_1910:
  %0 = alloca i64
  %1 = load i64, i64* %0
  ret i64 %1, !insn.addr !214
}

define void @_ZN12MultiDerivedD2Ev(i64* %result) local_unnamed_addr {
dec_label_pc_1920:
  ret void, !insn.addr !215
}

define i64 @_ZThn16_N12MultiDerivedD1Ev() local_unnamed_addr {
dec_label_pc_1924:
  %0 = alloca i64
  %1 = load i64, i64* %0
  ret i64 %1, !insn.addr !216
}

define void @_ZN7DerivedD2Ev(i64* %result) local_unnamed_addr {
dec_label_pc_1930:
  ret void, !insn.addr !217
}

define void @_ZN4BaseD0Ev(i64* %result) local_unnamed_addr {
dec_label_pc_1940:
  %0 = call i64 @_ZdlPvm(i64* %result, i64 8), !insn.addr !218
  ret void, !insn.addr !218
}

define void @_ZN7DerivedD0Ev(i64* %result) local_unnamed_addr {
dec_label_pc_1950:
  %0 = call i64 @_ZdlPvm(i64* %result, i64 16), !insn.addr !219
  ret void, !insn.addr !219
}

define void @_ZN12MultiDerivedD0Ev(i64* %result) local_unnamed_addr {
dec_label_pc_1960:
  %0 = call i64 @_ZdlPvm(i64* %result, i64 32), !insn.addr !220
  ret void, !insn.addr !220
}

define i64 @_ZThn16_N12MultiDerivedD0Ev() local_unnamed_addr {
dec_label_pc_1970:
  %0 = alloca i64
  %1 = load i64, i64* %0
  %2 = add i64 %1, -16, !insn.addr !221
  %3 = inttoptr i64 %2 to i64*, !insn.addr !222
  %4 = call i64 @_ZdlPvm(i64* %3, i64 32), !insn.addr !222
  ret i64 %4, !insn.addr !222
}

define void @_ZN12RTTIDerivedBD0Ev(i64* %result) {
dec_label_pc_1980:
  %0 = call i64 @_ZdlPvm(i64* %result, i64 8), !insn.addr !223
  ret void, !insn.addr !223
}

define void @_ZN12RTTIDerivedAD0Ev(i64* %result) {
dec_label_pc_1990:
  %0 = call i64 @_ZdlPvm(i64* %result, i64 8), !insn.addr !224
  ret void, !insn.addr !224
}

define void @_ZN14DiamondDerivedD0Ev(i64* %result) local_unnamed_addr {
dec_label_pc_19a0:
  %0 = call i64 @_ZdlPvm(i64* %result, i64 48), !insn.addr !225
  ret void, !insn.addr !225
}

define i64 @_ZTv0_n32_N14DiamondDerivedD0Ev() local_unnamed_addr {
dec_label_pc_19b0:
  %0 = alloca i64
  %1 = load i64, i64* %0
  %2 = add i64 %1, -32, !insn.addr !226
  %3 = inttoptr i64 %2 to i64*, !insn.addr !226
  %4 = load i64, i64* %3, align 8, !insn.addr !226
  %5 = add i64 %4, %1, !insn.addr !227
  %6 = inttoptr i64 %5 to i64*, !insn.addr !228
  %7 = call i64 @_ZdlPvm(i64* %6, i64 48), !insn.addr !228
  ret i64 %7, !insn.addr !228

; uselistorder directives
  uselistorder i64 %1, { 1, 0 }
}

define i64 @_ZThn16_N14DiamondDerivedD0Ev() local_unnamed_addr {
dec_label_pc_19c4:
  %0 = alloca i64
  %1 = load i64, i64* %0
  %2 = add i64 %1, -16, !insn.addr !229
  %3 = inttoptr i64 %2 to i64*, !insn.addr !230
  %4 = call i64 @_ZdlPvm(i64* %3, i64 48), !insn.addr !230
  ret i64 %4, !insn.addr !230

; uselistorder directives
  uselistorder i64 (i64*, i64)* @_ZdlPvm, { 8, 7, 5, 4, 3, 6, 2, 1, 0, 9 }
}

define i32 @_Z12template_maxIiET_S0_S0_(i32 %arg1, i32 %arg2) local_unnamed_addr {
dec_label_pc_19d0:
  %0 = sub i32 %arg1, %arg2, !insn.addr !231
  %1 = xor i32 %arg2, %arg1, !insn.addr !231
  %2 = xor i32 %0, %arg1, !insn.addr !231
  %3 = and i32 %2, %1, !insn.addr !231
  %4 = icmp slt i32 %3, 0, !insn.addr !231
  %5 = icmp slt i32 %0, 0, !insn.addr !231
  %6 = icmp eq i1 %5, %4, !insn.addr !232
  %7 = select i1 %6, i32 %arg1, i32 %arg2, !insn.addr !232
  ret i32 %7, !insn.addr !233

; uselistorder directives
  uselistorder i32 %0, { 1, 0 }
  uselistorder i32 %arg2, { 1, 0, 2 }
  uselistorder i32 %arg1, { 2, 0, 1, 3 }
}

define double @_Z12template_maxIdET_S0_S0_(double %arg1, double %arg2) local_unnamed_addr {
dec_label_pc_19e0:
  %0 = alloca double
  %1 = load double, double* %0
  %2 = load double, double* %0
  call void @__asm_fcmpe(double %2, double %1), !insn.addr !234
  ret double %arg1, !insn.addr !235

; uselistorder directives
  uselistorder double* %0, { 1, 0 }
}

define void @_Z13template_swapIiEvRT_S1_(i32* %arg1, i32* %arg2) local_unnamed_addr {
dec_label_pc_19f0:
  %0 = alloca i64
  %1 = load i64, i64* %0
  %2 = load i64, i64* %0
  %3 = trunc i64 %1 to i32
  %4 = trunc i64 %2 to i32
  store i32 %3, i32* %arg1, align 4, !insn.addr !236
  store i32 %4, i32* %arg2, align 4, !insn.addr !237
  ret void, !insn.addr !238

; uselistorder directives
  uselistorder i64* %0, { 1, 0 }
}

define void @_ZN9ContainerIiEC2Ev(i64* %result) local_unnamed_addr {
dec_label_pc_1a10:
  %0 = ptrtoint i64* %result to i64
  %1 = add i64 %0, 40, !insn.addr !239
  %2 = inttoptr i64 %1 to i32*, !insn.addr !239
  store i32 0, i32* %2, align 4, !insn.addr !239
  ret void, !insn.addr !240
}

define void @_ZN9ContainerIiE4pushEi(i64* %result, i32 %arg2) local_unnamed_addr {
dec_label_pc_1a20:
  %0 = ptrtoint i64* %result to i64
  %1 = add i64 %0, 40, !insn.addr !241
  %2 = inttoptr i64 %1 to i32*, !insn.addr !241
  %3 = load i32, i32* %2, align 4, !insn.addr !241
  %4 = icmp sgt i32 %3, 9, !insn.addr !242
  br i1 %4, label %dec_label_pc_1a38, label %dec_label_pc_1a2c, !insn.addr !242

dec_label_pc_1a2c:                                ; preds = %dec_label_pc_1a20
  %5 = zext i32 %3 to i64, !insn.addr !241
  %6 = add i32 %3, 1, !insn.addr !243
  store i32 %6, i32* %2, align 4, !insn.addr !244
  %7 = mul i64 %5, 4, !insn.addr !245
  %8 = and i64 %7, 4294967292, !insn.addr !245
  %9 = add i64 %8, %0, !insn.addr !245
  %10 = inttoptr i64 %9 to i32*, !insn.addr !245
  store i32 %arg2, i32* %10, align 4, !insn.addr !245
  br label %dec_label_pc_1a38, !insn.addr !245

dec_label_pc_1a38:                                ; preds = %dec_label_pc_1a2c, %dec_label_pc_1a20
  ret void, !insn.addr !246

; uselistorder directives
  uselistorder i32 %3, { 0, 2, 1 }
  uselistorder i64 40, { 1, 2, 0 }
}

define void @_ZNK9ContainerIiE3getEi(i64* %result, i32 %arg2) local_unnamed_addr {
dec_label_pc_1a40:
  ret void, !insn.addr !247
}

define void @_ZNK9ContainerIiE7getSizeEv(i64* %result) local_unnamed_addr {
dec_label_pc_1a70:
  ret void, !insn.addr !248
}

define void @_ZN9ContainerIdEC2Ev(i64* %result) local_unnamed_addr {
dec_label_pc_1a80:
  %0 = ptrtoint i64* %result to i64
  %1 = add i64 %0, 80, !insn.addr !249
  %2 = inttoptr i64 %1 to i32*, !insn.addr !249
  store i32 0, i32* %2, align 4, !insn.addr !249
  ret void, !insn.addr !250

; uselistorder directives
  uselistorder i32 0, { 3, 4, 5, 6, 0, 1, 2 }
}

define void @_ZN9ContainerIdE4pushEd(i64* %result, double %arg2) local_unnamed_addr {
dec_label_pc_1a90:
  %d0 = alloca double, align 8
  %0 = ptrtoint i64* %result to i64
  %1 = add i64 %0, 80, !insn.addr !251
  %2 = inttoptr i64 %1 to i32*, !insn.addr !251
  %3 = load i32, i32* %2, align 4, !insn.addr !251
  %4 = icmp sgt i32 %3, 9, !insn.addr !252
  br i1 %4, label %dec_label_pc_1aa8, label %dec_label_pc_1a9c, !insn.addr !252

dec_label_pc_1a9c:                                ; preds = %dec_label_pc_1a90
  %5 = zext i32 %3 to i64, !insn.addr !251
  %6 = add i32 %3, 1, !insn.addr !253
  store i32 %6, i32* %2, align 4, !insn.addr !254
  %7 = load double, double* %d0, align 8
  %8 = bitcast double %7 to i64
  %9 = mul i64 %5, 8, !insn.addr !255
  %10 = and i64 %9, 4294967288, !insn.addr !255
  %11 = add i64 %10, %0, !insn.addr !255
  %12 = inttoptr i64 %11 to i64*
  store i64 %8, i64* %12, align 8
  br label %dec_label_pc_1aa8, !insn.addr !255

dec_label_pc_1aa8:                                ; preds = %dec_label_pc_1a9c, %dec_label_pc_1a90
  ret void, !insn.addr !256

; uselistorder directives
  uselistorder i32 %3, { 0, 2, 1 }
  uselistorder i64 8, { 0, 5, 6, 7, 1, 2, 3, 10, 8, 9, 4 }
}

define void @_ZNK9ContainerIdE3getEi(i64* %result, i32 %arg2) local_unnamed_addr {
dec_label_pc_1ab0:
  ret void, !insn.addr !257
}

define i64 @_ZNK9ContainerIdE7getSizeEv() local_unnamed_addr {
dec_label_pc_1ad0:
  %0 = alloca i64
  %1 = load i64, i64* %0
  %2 = add i64 %1, 80, !insn.addr !258
  %3 = inttoptr i64 %2 to i32*, !insn.addr !258
  %4 = load i32, i32* %3, align 4, !insn.addr !258
  %5 = zext i32 %4 to i64, !insn.addr !258
  ret i64 %5, !insn.addr !259
}

define i64 @_fini(i64 %arg1) local_unnamed_addr {
dec_label_pc_1ad8:
  %0 = alloca i64
  %1 = load i64, i64* %0
  ret i64 %1, !insn.addr !260

; uselistorder directives
  uselistorder i32 1, { 16, 15, 42, 36, 43, 14, 17, 13, 12, 11, 10, 9, 8, 7, 6, 5, 4, 24, 25, 26, 27, 28, 29, 30, 31, 32, 33, 34, 35, 39, 3, 2, 37, 38, 0, 40, 18, 41, 1, 23, 22, 21, 20, 19 }
}

declare i32 @puts(i8*) local_unnamed_addr

declare i32 @strlen(i8*) local_unnamed_addr

declare void @__stack_chk_fail() local_unnamed_addr

declare i64 @__cxa_begin_catch(i64) local_unnamed_addr

declare i64 @__cxa_allocate_exception(i64) local_unnamed_addr

declare void @__cxa_finalize(i64*) local_unnamed_addr

declare i32 @__libc_start_main(i64, i32, i8**, void ()*, void ()*, void ()*) local_unnamed_addr

declare i64 @_Znwm(i64) local_unnamed_addr

declare i64 @_ZdlPvm(i64*, i64) local_unnamed_addr

declare i8* @strncpy(i8*, i8*, i32) local_unnamed_addr

declare i64 @__dynamic_cast(i64, i64, i64*, i64) local_unnamed_addr

declare i32 @__cxa_atexit(void (i64*)*, i64*, i64*) local_unnamed_addr

declare i32 @strcmp(i8*, i8*) local_unnamed_addr

declare i64 @__cxa_rethrow(i64) local_unnamed_addr

declare i64 @_ZNSt8ios_base4InitC1Ev() local_unnamed_addr

declare void @abort() local_unnamed_addr

declare i64 @__cxa_end_catch(i64) local_unnamed_addr

declare i64 @__cxa_throw(i64, i64, i64, i64) local_unnamed_addr

declare void @_Unwind_Resume(%_Unwind_Exception*) local_unnamed_addr

declare i32 @__printf_chk(i32, i8*, ...) local_unnamed_addr

declare i64 @__gmon_start__.11(i64) local_unnamed_addr

declare void @__asm_fcmpe(double, double) local_unnamed_addr

!0 = !{i64 3740}
!1 = !{i64 3748}
!2 = !{i64 3804}
!3 = !{i64 3820}
!4 = !{i64 3836}
!5 = !{i64 3852}
!6 = !{i64 3868}
!7 = !{i64 3884}
!8 = !{i64 3900}
!9 = !{i64 3916}
!10 = !{i64 3932}
!11 = !{i64 3948}
!12 = !{i64 3964}
!13 = !{i64 3980}
!14 = !{i64 3996}
!15 = !{i64 4012}
!16 = !{i64 4028}
!17 = !{i64 4044}
!18 = !{i64 4060}
!19 = !{i64 4092}
!20 = !{i64 4108}
!21 = !{i64 4124}
!22 = !{i64 4140}
!23 = !{i64 4160}
!24 = !{i64 4180}
!25 = !{i64 4192}
!26 = !{i64 4200}
!27 = !{i64 4204}
!28 = !{i64 4212}
!29 = !{i64 4216}
!30 = !{i64 4228}
!31 = !{i64 4232}
!32 = !{i64 4236}
!33 = !{i64 4248}
!34 = !{i64 4264}
!35 = !{i64 4268}
!36 = !{i64 4272}
!37 = !{i64 4280}
!38 = !{i64 4288}
!39 = !{i64 4300}
!40 = !{i64 4308}
!41 = !{i64 4316}
!42 = !{i64 4320}
!43 = !{i64 4324}
!44 = !{i64 4328}
!45 = !{i64 4332}
!46 = !{i64 4336}
!47 = !{i64 4340}
!48 = !{i64 4344}
!49 = !{i64 4348}
!50 = !{i64 4352}
!51 = !{i64 4368}
!52 = !{i64 4392}
!53 = !{i64 4404}
!54 = !{i64 4444}
!55 = !{i64 4472}
!56 = !{i64 4476}
!57 = !{i64 4512}
!58 = !{i64 4524}
!59 = !{i64 4528}
!60 = !{i64 4536}
!61 = !{i64 4540}
!62 = !{i64 4544}
!63 = !{i64 4548}
!64 = !{i64 4604}
!65 = !{i64 4664}
!66 = !{i64 4672}
!67 = !{i64 4688}
!68 = !{i64 4692}
!69 = !{i64 4700}
!70 = !{i64 4704}
!71 = !{i64 4712}
!72 = !{i64 4716}
!73 = !{i64 4720}
!74 = !{i64 4728}
!75 = !{i64 4740}
!76 = !{i64 4752}
!77 = !{i64 4784}
!78 = !{i64 4800}
!79 = !{i64 4816}
!80 = !{i64 4824}
!81 = !{i64 4832}
!82 = !{i64 4840}
!83 = !{i64 4852}
!84 = !{i64 4868}
!85 = !{i64 4872}
!86 = !{i64 4876}
!87 = !{i64 4888}
!88 = !{i64 4892}
!89 = !{i64 4896}
!90 = !{i64 4900}
!91 = !{i64 4924}
!92 = !{i64 4932}
!93 = !{i64 4948}
!94 = !{i64 4964}
!95 = !{i64 4980}
!96 = !{i64 5008}
!97 = !{i64 5024}
!98 = !{i64 5036}
!99 = !{i64 5052}
!100 = !{i64 5076}
!101 = !{i64 5080}
!102 = !{i64 5096}
!103 = !{i64 5112}
!104 = !{i64 5128}
!105 = !{i64 5100}
!106 = !{i64 5092}
!107 = !{i64 5104}
!108 = !{i64 5124}
!109 = !{i64 5144}
!110 = !{i64 5148}
!111 = !{i64 5156}
!112 = !{i64 5172}
!113 = !{i64 5188}
!114 = !{i64 5232}
!115 = !{i64 5252}
!116 = !{i64 5256}
!117 = !{i64 5264}
!118 = !{i64 5284}
!119 = !{i64 5288}
!120 = !{i64 5292}
!121 = !{i64 5296}
!122 = !{i64 5300}
!123 = !{i64 5312}
!124 = !{i64 5304}
!125 = !{i64 5324}
!126 = !{i64 5336}
!127 = !{i64 5356}
!128 = !{i64 5360}
!129 = !{i64 5372}
!130 = !{i64 5364}
!131 = !{i64 5380}
!132 = !{i64 5420}
!133 = !{i64 5456}
!134 = !{i64 5480}
!135 = !{i64 5496}
!136 = !{i64 5512}
!137 = !{i64 5516}
!138 = !{i64 5540}
!139 = !{i64 5568}
!140 = !{i64 5584}
!141 = !{i64 5596}
!142 = !{i64 5616}
!143 = !{i64 5628}
!144 = !{i64 5652}
!145 = !{i64 5656}
!146 = !{i64 5676}
!147 = !{i64 5696}
!148 = !{i64 5716}
!149 = !{i64 5720}
!150 = !{i64 5740}
!151 = !{i64 5760}
!152 = !{i64 5764}
!153 = !{i64 5784}
!154 = !{i64 5804}
!155 = !{i64 5824}
!156 = !{i64 5828}
!157 = !{i64 5848}
!158 = !{i64 5852}
!159 = !{i64 5872}
!160 = !{i64 5876}
!161 = !{i64 5888}
!162 = !{i64 5896}
!163 = !{i64 5908}
!164 = !{i64 5932}
!165 = !{i64 5936}
!166 = !{i64 5948}
!167 = !{i64 5956}
!168 = !{i64 5976}
!169 = !{i64 5984}
!170 = !{i64 6008}
!171 = !{i64 6024}
!172 = !{i64 6036}
!173 = !{i64 6052}
!174 = !{i64 6068}
!175 = !{i64 6100}
!176 = !{i64 6116}
!177 = !{i64 6120}
!178 = !{i64 6124}
!179 = !{i64 6128}
!180 = !{i64 6132}
!181 = !{i64 6136}
!182 = !{i64 6140}
!183 = !{i64 6144}
!184 = !{i64 6180}
!185 = !{i64 6196}
!186 = !{i64 6200}
!187 = !{i64 6204}
!188 = !{i64 6208}
!189 = !{i64 6212}
!190 = !{i64 6216}
!191 = !{i64 6220}
!192 = !{i64 6224}
!193 = !{i64 6260}
!194 = !{i64 6276}
!195 = !{i64 6280}
!196 = !{i64 6284}
!197 = !{i64 6288}
!198 = !{i64 6292}
!199 = !{i64 6296}
!200 = !{i64 6300}
!201 = !{i64 6304}
!202 = !{i64 6308}
!203 = !{i64 6312}
!204 = !{i64 6316}
!205 = !{i64 6320}
!206 = !{i64 6324}
!207 = !{i64 6328}
!208 = !{i64 6340}
!209 = !{i64 6356}
!210 = !{i64 6368}
!211 = !{i64 6384}
!212 = !{i64 6400}
!213 = !{i64 6404}
!214 = !{i64 6416}
!215 = !{i64 6432}
!216 = !{i64 6436}
!217 = !{i64 6448}
!218 = !{i64 6468}
!219 = !{i64 6484}
!220 = !{i64 6500}
!221 = !{i64 6512}
!222 = !{i64 6520}
!223 = !{i64 6532}
!224 = !{i64 6548}
!225 = !{i64 6564}
!226 = !{i64 6584}
!227 = !{i64 6588}
!228 = !{i64 6592}
!229 = !{i64 6596}
!230 = !{i64 6604}
!231 = !{i64 6608}
!232 = !{i64 6612}
!233 = !{i64 6616}
!234 = !{i64 6624}
!235 = !{i64 6632}
!236 = !{i64 6648}
!237 = !{i64 6652}
!238 = !{i64 6656}
!239 = !{i64 6672}
!240 = !{i64 6676}
!241 = !{i64 6688}
!242 = !{i64 6696}
!243 = !{i64 6700}
!244 = !{i64 6704}
!245 = !{i64 6708}
!246 = !{i64 6712}
!247 = !{i64 6748}
!248 = !{i64 6772}
!249 = !{i64 6784}
!250 = !{i64 6788}
!251 = !{i64 6800}
!252 = !{i64 6808}
!253 = !{i64 6812}
!254 = !{i64 6816}
!255 = !{i64 6820}
!256 = !{i64 6824}
!257 = !{i64 6852}
!258 = !{i64 6864}
!259 = !{i64 6868}
!260 = !{i64 6888}
